(i__main__
CollapsedForest
p1
(dp2
S'n_trees'
p3
I1
sS'frame'
p4
NsS'tree'
p5
NsS'_nparams'
p6
I2
sS'params'
p7
(lp8
F0.49494949527648591
aF0.20408163261901535
asS'forest'
p9
((i__main__
CollapsedTree
p10
(dp11
g5
ccopy_reg
_reconstructor
p12
(cete3.coretype.tree
TreeNode
p13
c__builtin__
object
p14
NtRp15
(dp16
S'partition'
p17
I50
sS'features'
p18
c__builtin__
set
p19
((lp20
S'dist'
p21
aS'name'
p22
aS'sequence'
p23
aS'support'
p24
ag17
aS'frequency'
p25
atRp26
sS'sequence'
p27
S'GGACCTAGCCTCGTGAAACCTTCTCAGACTCTGTCCCTCACCTGTTCTGTCACTGGCGACTCCATCACCAGTGGTTACTGGAACTGGATCCGGAAATTCCCAGGGAATAAACTTGAGTACATGGGGTACATAAGCTACAGTGGTAGCACTTACTACAATCCATCTCTCAAAAGTCGAATCTCCATCACTCGAGACACATCCAAGAACCAGTACTACCTGCAGTTGAATTCTGTGACTACTGAGGACACAGCCACATATTACTGT'
p28
sS'_up'
p29
NsS'_dist'
p30
F0
sS'frequency'
p31
I7
sS'_img_style'
p32
NsS'_support'
p33
F1
sS'_children'
p34
(lp35
g12
(g13
g14
NtRp36
(dp37
g17
I1
sg18
g19
((lp38
g21
ag22
ag23
ag24
ag17
ag25
atRp39
sg27
S'GGACCTAACCTCGTGAAACCTTCTCAGACTCTGTCCCTCACCTGTTCTGTCACTGGCGACTCCATCACCAGTGGTTACTGGAACTGGATCCGGAAATTCCCAGGGAATAAACTTGAGTACATGGGGTACATAAGCTACAGTGGTAGCACTTACTACAATCCATCTCTCAAAAGTCGAATCTCCATCACTCGAGACACATCCAAGAACCAGTACTACCTGCAGTTGAATTCTGTGACTACTGAGGACACAGCCACATATTACTGT'
p40
sg29
g15
sg30
F1
sg31
I1
sg32
Nsg33
F1
sg34
(lp41
sS'name'
p42
S'seq15'
p43
sbag12
(g13
g14
NtRp44
(dp45
g17
I1
sg18
g19
((lp46
g21
ag22
ag23
ag24
ag17
ag25
atRp47
sg27
S'GGACCTAGCCTCGAGAAACCTTCTCAGACTCTGTCCCTCACCTGTTCTGTCACTGGCGACTCCATCACCAGTGGTTACTGGAACTGGATCCGGAAATTCCCAGGGAATAAACTTGAGTACATGGGGTACATAAGCTACAGTGGTAGCACTTACTACAATCCATCTCTCAAAAGTCGAATCTCCATCACTCGAGACACATCCAAGAACCAGTACTACCTGCAGTTGAATTCTGTGACTACTGAGGACACAGCCACATATTACTGT'
p48
sg29
g15
sg30
F1
sg31
I1
sg32
Nsg33
F1
sg34
(lp49
sg42
S'seq18'
p50
sbag12
(g13
g14
NtRp51
(dp52
g17
I1
sg18
g19
((lp53
g21
ag22
ag23
ag24
ag17
ag25
atRp54
sg27
S'GGACCTAGCCTCGTGAAACCTTCTCAGACTCGGTCCCTCACCTGTTCTGTCACTGGCGACTCCATCACCAGTGGTTACTGGAACTGGATCCGGAAATTCCCAGGGAATAAACTTGAGTACATGGGGTACATAAGCTACAGTGGTAGCACTTACTACAATCCATCTCTCAAAAGTCGAATCTCCATCACTCGAGACACATCCAAGAACCAGTACTACCTGCAGTTGAATTCTGTGACTACTGAGGACACAGCCACATATTACTGT'
p55
sg29
g15
sg30
F1
sg31
I1
sg32
Nsg33
F1
sg34
(lp56
sg42
S'seq16'
p57
sbag12
(g13
g14
NtRp58
(dp59
g17
I1
sg18
g19
((lp60
g21
ag22
ag23
ag24
ag17
ag25
atRp61
sg27
S'GGACCTAGCCTCGTGAAACCTTCTCAGACTCTGTCCCTCACCTGTTCTGTCACTGGCGACTCCATCACCAGTGGTTACTGGAACTGGATCCGGAAATTCCCAGGGAATAAACTTGAGTACATGGGGTACATAAGCTACAGTGGTAGCACTTACTACAATCCATCTCTCAAAAGTCGAATCTCCATCACTCGAGACACATCCAAGAACCAATACTACCTGCAGTTGAATTCTGTGACTACTGAGGACACAGCCACATATTACTGT'
p62
sg29
g15
sg30
F1
sg31
I1
sg32
Nsg33
F1
sg34
(lp63
sg42
S'seq17'
p64
sbag12
(g13
g14
NtRp65
(dp66
g17
I1
sg18
g19
((lp67
g21
ag22
ag23
ag24
ag17
ag25
atRp68
sg27
S'GGACCTAGCCTCGTGAAACCTTCTCAGACTCTGTCCCTCACCTGTTCTGTCACTGGCGACTCCATCACCAGTGGTTACTGGAACTGGATCCGGAAATTCCCAGGGAATCAACTTGAGTACATGGGGTACATAAGCTACAGTGGTAGCACTTACTACAATCCATCTCTCAAAAGTCGAATCTCCATCACTCGAGACACATCCAAGAACCAGTACTACCTGCAGTTGAATTCTGTGACTACTGAGGACACAGCCACATATTACTGT'
p69
sg29
g15
sg30
F1
sg31
I1
sg32
Nsg33
F1
sg34
(lp70
sg42
S'seq11'
p71
sbag12
(g13
g14
NtRp72
(dp73
g17
I1
sg18
g19
((lp74
g21
ag22
ag23
ag24
ag17
ag25
atRp75
sg27
S'GGACCTAGCCTCGTGAAACCTTCTCAGACTCTGTCCCTCACCTGTTCTGTCACTGGCGACTCCATCACCAGTGGTTACTGGAACTGGATCCGGCAATTCCCAGGGAATAAACTTGAGTACATGGGGTACATAAGCTACAGTGGTAGCACTTACTACAATCCATCTCTCAAAAGTCGAATCTCCATCACTCGAGACACATCCAAGAACCAGTACTACCTGCAGTTGAATTCTGTGACTACTGAGGACACAGCCACATATTACTGT'
p76
sg29
g15
sg30
F1
sg31
I1
sg32
Nsg33
F1
sg34
(lp77
sg42
S'seq6'
p78
sbag12
(g13
g14
NtRp79
(dp80
g17
I2
sg18
g19
((lp81
g21
ag22
ag23
ag24
ag17
ag25
atRp82
sg27
S'GGACCTAGCCTCGTGAAACCTTCTCAGACTCTGTCCCTCACCTGTTCTGTCACTGGCGACTCCATCACCAGTGGTTACTGGAACTGGATCCGGAAATTCCCAGGGAATAAACTTGAGTACATGGGGTACATACGCTACAGTGGTAGCACTTACTACAATCCATCTCTCAAAAGTCGAATCTCCATCACTCGAGACACATCCAAGAACCAGTACTACCTGCAGTTGAATTCTGTGACTACTGAGGACACAGCCACATATTACTGT'
p83
sg29
g15
sg30
F1
sg31
I2
sg32
Nsg33
F1
sg34
(lp84
sg42
S'seq13'
p85
sbag12
(g13
g14
NtRp86
(dp87
g17
I2
sg18
g19
((lp88
g21
ag22
ag23
ag24
ag17
ag25
atRp89
sg27
S'GGACCTAGCCTCGTGCAACCTTCTCAGACTCTGTCCCTCACCTGTTCTGTCACTGGCGACTCCATCACCAGTGGTTACTGGAACTGGATCCGGAAATTCCCAGGGAATAAACTTGAGTACATGGGGTACATAAGCTACAGTGGTAGCACTTACTACAATCCATCTCTCAAAAGTCGAATCTCCATCACTCGAGACACATCCAAGAACCAGTACTACCTGCAGTTGAATTCTGTGACTACTGAGGACACAGCCACATATTACTGT'
p90
sg29
g15
sg30
F1
sg31
I2
sg32
Nsg33
F1
sg34
(lp91
sg42
S'seq12'
p92
sbag12
(g13
g14
NtRp93
(dp94
g17
I3
sg18
g19
((lp95
g21
ag22
ag23
ag24
ag17
ag25
atRp96
sg27
S'GGACCTAGCCTCGTGAAACCTTCTCAGACTCTGTCCCTCACCTGTTCTGTCACTGGCGACTCCATCACCAGTGGTTACTGGAACTGGATCCGGAAATTCCCAGGGAATAAACTTGAGTACATGGGATACATAAGCTACAGTGGTAGCACTTACTACAATCCATCTCTCAAAAGTCGAATCTCCATCACTCGAGACACATCCAAGAACCAGTACTACCTGCAGTTGAATTCTGTGACTACTGAGGACACAGCCACATATTACTGT'
p97
sg29
g15
sg30
F1
sg31
I3
sg32
Nsg33
F1
sg34
(lp98
sg42
S'seq7'
p99
sbag12
(g13
g14
NtRp100
(dp101
g17
I5
sg18
g19
((lp102
g21
ag22
ag23
ag24
ag17
ag25
atRp103
sg27
S'GGACCTAGCCTCGTGAAACCTTCTCAGACTCTGTCCCTCACCTGTTCTGTCACTGGCGACTCCATCACCAGTGGTTACTGGAACTGGATCCGGAAATTCCCAGGGAATAAACTTGAGTACATGGGGTACATAAGCTACAGTGGTAGCACTTACTACAATCCATCTCTCAAATGTCGAATCTCCATCACTCGAGACACATCCAAGAACCAGTACTACCTGCAGTTGAATTCTGTGACTACTGAGGACACAGCCACATATTACTGT'
p104
sg29
g15
sg30
F1
sg31
I3
sg32
Nsg33
F1
sg34
(lp105
g12
(g13
g14
NtRp106
(dp107
g17
I1
sg18
g19
((lp108
g21
ag22
ag23
ag24
ag17
ag25
atRp109
sg27
S'GGACCTAGCCTCGTGAAACCTTCTCAGACTCTGTCCCTCACCTGTTCTGTCACTGGCGACTCCATCACCAGTGGTTACTGGAACTGGATCCGGAAATTCCCAGGGAATAAACTTGAGTACATGGGCTACATAAGCTACAGTGGTAGCACTTACTACAATCCATCTCTCAAATGTCGAATCTCCATCACTCGAGACACATCCAAGAACCAGTACTACCTGCAGTTGAATTCTGTGACTACTGAGGACACAGCCACATATTACTGT'
p110
sg29
g100
sg30
F1
sg31
I1
sg32
Nsg33
F1
sg34
(lp111
sg42
S'seq19'
p112
sbag12
(g13
g14
NtRp113
(dp114
g17
I1
sg18
g19
((lp115
g21
ag22
ag23
ag24
ag17
ag25
atRp116
sg27
S'GGACCTAGCCTCGTGAAACCTTCTCAGACTCTGTCCCTCACCTGTTCTGTCACTGGCGACTCCATCACCAGTGGTTACTGGAACTGGATCCGGAAATTCCCAGGGAATAAACTTGAGTACATGGGGTACATAAGTTACAGTGGTAGCACTTACTACAATCCATCTCTCAAATGTCGAATCTCCATCACTCGAGACACATCCAAGAACCAGTACTACCTGCAGTTGAATTCTGTGACTACTGAGGACACAGCCACATATTACTGT'
p117
sg29
g100
sg30
F1
sg31
I1
sg32
Nsg33
F1
sg34
(lp118
sg42
S'seq5'
p119
sbasg42
S'seq14'
p120
sbag12
(g13
g14
NtRp121
(dp122
g17
I12
sg18
g19
((lp123
g21
ag22
ag23
ag24
ag17
ag25
atRp124
sg27
S'GGACCTAGCCTCGTGAAACCTTCTCAGACTCTGTCCCTCACCTGTTCTGTCACTGGCGACTCCATCACCAGTGGTTACTGGAACTGGATCCGGAAATTCCCAGGGAATAAACTTGAGTATATGGGGTACATAAGCTACAGTGGTAGCACTTACTACAATCCATCTCTCAAAAGTCGAATCTCCATCACTCGAGACACATCCAAGAACCAGTACTACCTGCAGTTGAATTCTGTGACTACTGAGGACACAGCCACATATTACTGT'
p125
sg29
g15
sg30
F1
sg31
I5
sg32
Nsg33
F1
sg34
(lp126
g12
(g13
g14
NtRp127
(dp128
g17
I1
sg18
g19
((lp129
g21
ag22
ag23
ag24
ag17
ag25
atRp130
sg27
S'GGACCTAGCCTCGTAAAACCTTCTCAGACTCTGTCCCTCACCTGTTCTGTCACTGGCGACTCCATCACCAGTGGTTACTGGAACTGGATCCGGAAATTCCCAGGGAATAAACTTGAGTATATGGGGTACATAAGCTACAGTGGTAGCACTTACTACAATCCATCTCTCAAAAGTCGAATCTCCATCACTCGAGACACATCCAAGAACCAGTACTACCTGCAGTTGAATTCTGTGACTACTGAGGACACAGCCACATATTACTGT'
p131
sg29
g121
sg30
F1
sg31
I1
sg32
Nsg33
F1
sg34
(lp132
sg42
S'seq20'
p133
sbag12
(g13
g14
NtRp134
(dp135
g17
I1
sg18
g19
((lp136
g21
ag22
ag23
ag24
ag17
ag25
atRp137
sg27
S'GGACCTAGCCTCGTGAAACCTTCTCAGACTCTGTCCCTCACCTGTTCTGTCACTGGCGACTCCATCACCAGTGGTTACTGGAACTGGATCCGGAAATTCCCAGGGAATAAACTTGAGTATATGGGGTACATAAGCTACAGTGGTAGAACTTACTACAATCCATCTCTCAAAAGTCGAATCTCCATCACTCGAGACACATCCAAGAACCAGTACTACCTGCAGTTGAATTCTGTGACTACTGAGGACACAGCCACATATTACTGT'
p138
sg29
g121
sg30
F1
sg31
I1
sg32
Nsg33
F1
sg34
(lp139
sg42
S'seq2'
p140
sbag12
(g13
g14
NtRp141
(dp142
g17
I1
sg18
g19
((lp143
g21
ag22
ag23
ag24
ag17
ag25
atRp144
sg27
S'GGACCTAGCCTCGTGAAACCTTCTCAGACTCTGTCCCTCACCTGTTCTGTCACTGGCGACTCCATCACCAGTGGTTACTGGAACTGGATCCGGAAGTTCCCAGGGAATAAACTTGAGTATATGGGGTACATAAGCTACAGTGGTAGCACTTACTACAATCCATCTCTCAAAAGTCGAATCTCCATCACTCGAGACACATCCAAGAACCAGTACTACCTGCAGTTGAATTCTGTGACTACTGAGGACACAGCCACATATTACTGT'
p145
sg29
g121
sg30
F1
sg31
I1
sg32
Nsg33
F1
sg34
(lp146
sg42
S'seq1'
p147
sbag12
(g13
g14
NtRp148
(dp149
g17
I4
sg18
g19
((lp150
g21
ag22
ag23
ag24
ag17
ag25
atRp151
sg27
S'GGACCTAGCCTCGTGAAACCTTCTCAGACTCTGTCCCTCACCTGTTCTGTCACTGGCGACTCCATCACCAGTGGTTACTGGAACTGGATCCGGAAATTCCCAGGGAATAAACTTGAGTATATGGGGTACATAAGCTACAGTGGTAGCTCTTACTACAATCCATCTCTCAAAAGTCGAATCTCCATCACTCGAGACACATCCAAGAACCAGTACTACCTGCAGTTGAATTCTGTGACTACTGAGGACACAGCCACATATTACTGT'
p152
sg29
g121
sg30
F1
sg31
I3
sg32
Nsg33
F1
sg34
(lp153
g12
(g13
g14
NtRp154
(dp155
g17
I1
sg18
g19
((lp156
g21
ag22
ag23
ag24
ag17
ag25
atRp157
sg27
S'GGACCTAGCCTCGTGAAACCTTCTCAGACTCTGTCCCTCACCTGTTCTGTCACTGGCGACTCCATCACCAGTGGTTACTGGAACTGGATCCGGAAATTCCCAGGGAATAAACTTGAGTATATGGGCTACATAAGCTACAGTGGTAGCTCTTACTACAATCCATCTCTCAAAAGTCGAATCTCCATCACTCGAGACACATCCAAGAACCAGTACTACCTGCAGTTGAATTCTGTGACTACTGAGGACACAGCCACATATTACTGT'
p158
sg29
g148
sg30
F1
sg31
I1
sg32
Nsg33
F1
sg34
(lp159
sg42
S'seq9'
p160
sbasg42
S'seq8'
p161
sbasg42
S'seq10'
p162
sbag12
(g13
g14
NtRp163
(dp164
g17
I13
sg18
g19
((lp165
g21
ag22
ag23
ag24
ag17
ag25
atRp166
sg27
S'GGACCTAGCCTCGTGAAACCTTCTCAGACTCTGTCCCTCACCTGTTCTGTCACTGGCGACTCCATCACCAGTGGTTACTGGAACTGGATCCGGAAATTCCCAGGGAATAAACTTGAGTACATGGGGTACATAAGCTACAGTGGTAGCACTTACTACAATCCATCTCTCAAAAGTCGAATCTCCATCACTCGAGACACATCCAAGAACCAGTACTACCTGCAGTTGAATTCTGTGACCACTGAGGACACAGCCACATATTACTGT'
p167
sg29
g15
sg30
F1
sg31
I9
sg32
Nsg33
F1
sg34
(lp168
g12
(g13
g14
NtRp169
(dp170
g17
I4
sg18
g19
((lp171
g21
ag22
ag23
ag24
ag17
ag25
atRp172
sg27
S'GGACCTAGCCTCGTGAAACCTTCTCAGACTCTGTCCCTCACCTGTTCTGTCACTGGCGACTCCATCACCAGTGGTTACTGGAACTGGATCCGGAAATTCCCAGGGAATAAACTTGAGTACATGGGGTACATAAGCTACAGTGGTAGCACTTATTACAATCCATCTCTCAAAAGTCGAATCTCCATCACTCGAGACACATCCAAGAACCAGTACTTCCTGCAGTTGAATTCTGTGACCACTGAGGACACAGCCACATATTACTGT'
p173
sg29
g163
sg30
F2
sg31
I4
sg32
Nsg33
F1
sg34
(lp174
sg42
S'seq3'
p175
sbasg42
S'seq4'
p176
sbasg42
S'naive'
p177
sbsg4
Nsg7
Nsg6
I2
sbtp178
sb.