(i__main__
CollapsedTree
p1
(dp2
S'tree'
p3
ccopy_reg
_reconstructor
p4
(cete3.coretype.tree
TreeNode
p5
c__builtin__
object
p6
NtRp7
(dp8
S'terminated'
p9
I00
sS'partition'
p10
I50
sS'features'
p11
c__builtin__
set
p12
((lp13
S'terminated'
p14
aS'dist'
p15
aS'name'
p16
aS'sequence'
p17
aS'support'
p18
ag10
aS'frequency'
p19
aS'time'
p20
atRp21
sS'sequence'
p22
S'GGACCTAGCCTCGTGAAACCTTCTCAGACTCTGTCCCTCACCTGTTCTGTCACTGGCGACTCCATCACCAGTGGTTACTGGAACTGGATCCGGAAATTCCCAGGGAATAAACTTGAGTACATGGGGTACATAAGCTACAGTGGTAGCACTTACTACAATCCATCTCTCAAAAGTCGAATCTCCATCACTCGAGACACATCCAAGAACCAGTACTACCTGCAGTTGAATTCTGTGACTACTGAGGACACAGCCACATATTACTGT'
p23
sS'_up'
p24
NsS'_dist'
p25
F0
sS'frequency'
p26
I22
sS'_img_style'
p27
NsS'time'
p28
I0
sS'_support'
p29
F1
sS'_children'
p30
(lp31
g4
(g5
g6
NtRp32
(dp33
g9
I00
sg10
I1
sg11
g12
((lp34
g14
ag15
ag16
ag17
ag18
ag10
ag19
ag20
atRp35
sg22
S'GGACCCAGCCTCGTGAAACCTTCTCAGACTCTGTCCCTCACCTGTTCTGTCACTGGCGACTCCATCACCAGTGGTTACTGGAACTGGATCCGGAAATTCCCAGGGAATAAACTTGAGTACATGGGGTACATAAGCTACAGTGGTAGCACTTACTACAATCCATCTCTCAAAAGTCGAATCTCCATCACTCGAGACACATCCAAGAACCAGTACTACCTGCAGTTGAATTCTGTGACTACTGAGGACACAGCCACATATTACTGT'
p36
sg24
g7
sg25
F1
sg26
I1
sg27
Nsg28
I9
sg29
F1
sg30
(lp37
sS'name'
p38
S'simcell_88'
p39
sbag4
(g5
g6
NtRp40
(dp41
g9
I00
sg10
I1
sg11
g12
((lp42
g14
ag15
ag16
ag17
ag18
ag10
ag19
ag20
atRp43
sg22
S'GGACCTAGCCTCGTGAAACCTTCTCAGACTCTGTCCCTCACCTGTTCTGTCACTGGCGACTCCATCACCAGTGGTTACTGGAACTGGATCCGGAAATTCCCAGGGAATAAACTTGAGTACATGGGGTACATAAGCTACAGTGGTAGCACTTACTACAATCCATCTCTCAAAAGTCGAATCTCCATCACTCGAGACACATCCAAGAACCAGTACTACCTGCAGTTGAATTCTGGGACTACTGAGGACACAGCCACATATTAATGT'
p44
sg24
g7
sg25
F2
sg26
I1
sg27
Nsg28
I9
sg29
F1
sg30
(lp45
sg38
S'simcell_98'
p46
sbag4
(g5
g6
NtRp47
(dp48
g9
I00
sg10
I1
sg11
g12
((lp49
g14
ag15
ag16
ag17
ag18
ag10
ag19
ag20
atRp50
sg22
S'GGACCTAGCCTCGTGAAACCTTCTCAGACTCTGTCCCTCACCTGTTCTGTCACTGGCGACTCCATCACCAGTGGTTACTGGAACTGGATCCGGAAATTCCCAGGGAATAAACTTGAGTACATGGGGTACATAAGCTAGAGTGGTAGCACTTACTACAATCCATCTCTCAAAAGTCGAATCTCCATCACTCGAGACACATCCAAGAACCAGTACTACCTGCAGTTGAATTCTGTGACTACTGAGGACACAGCCACATATTACTGT'
p51
sg24
g7
sg25
F1
sg26
I1
sg27
Nsg28
I9
sg29
F1
sg30
(lp52
sg38
S'simcell_100'
p53
sbag4
(g5
g6
NtRp54
(dp55
g9
I00
sg10
I1
sg11
g12
((lp56
g14
ag15
ag16
ag17
ag18
ag10
ag19
ag20
atRp57
sg22
S'GGACCTAGCCTCGTGAAACCTTCTCAGACTCTGTCCCTCACCTGTTCTGTCACTGGCGACTCCATCACCAGTGGTTACTGGAACTGGATCCGGAAATTCCCAGGGAATAAACTTGAGTACATGGGGTACATAAGCTATAGTGGTAGCACTTACTACAATCCATCTCTCAAAAGTCGAATCTCCATCACTCGAGACACATCCAAGAACCAGTACTACCTGCAGTTGAATTCTGTGACTACTGAGGACACAGCCACATATTACTGT'
p58
sg24
g7
sg25
F1
sg26
I1
sg27
Nsg28
I9
sg29
F1
sg30
(lp59
sg38
S'simcell_85'
p60
sbag4
(g5
g6
NtRp61
(dp62
g9
I00
sg10
I1
sg11
g12
((lp63
g14
ag15
ag16
ag17
ag18
ag10
ag19
ag20
atRp64
sg22
S'GGACCTAGCCTCGTGAAACCTTCTCAGACTCTGTCCCTCACCTGTTCTGTCACTGGCGACTCCATCACCAGTGGTTACTGGAACTGGATCCGGAAATTCCCAGGGAGTAAACTTGAGTACATGGGGTACATAAGCTACAGTGGTAGCACTTACTGCAATCCATCTCTCAAAAGTCGAATCTCCATCACTCGAGACACATCCAAGAACCAGTACTACCTGCAGTTGAATTCTGTGACTACTGAGGACACAGCCACATATTACTGT'
p65
sg24
g7
sg25
F2
sg26
I1
sg27
Nsg28
I9
sg29
F1
sg30
(lp66
sg38
S'simcell_92'
p67
sbag4
(g5
g6
NtRp68
(dp69
g9
I00
sg10
I2
sg11
g12
((lp70
g14
ag15
ag16
ag17
ag18
ag10
ag19
ag20
atRp71
sg22
S'GGACCTAGCCTCGTGAAAACTTCTCAGACTCTGTCCCTCACCTGTTCTGTCACTGGCGACTCCATCACCAGTGGTTACTGGAACTGGATCCGGAAATTCCCAGGGAATAAACTTGAGTACATGGGGTACATAAGCTACAGTGGTAGCACTTACTACAATCCATCTCTCAAAAGTCGAATCTCCATCACTCGAGACACATCCAAGAACCAGTACTACCTGCAGTTGAATTCTGTGACTACTGAGGACACAGCCACATATTACTGT'
p72
sg24
g7
sg25
F1
sg26
I1
sg27
Nsg28
I7
sg29
F1
sg30
(lp73
g4
(g5
g6
NtRp74
(dp75
g9
I00
sg10
I1
sg11
g12
((lp76
g14
ag15
ag16
ag17
ag18
ag10
ag19
ag20
atRp77
sg22
S'GGACCTAGCCTCGTGAAAACTTCTCAGACTCTGTCCCTCACCTGTTCTGTCACTGGCGACTCCATCACCAGTGGTTACTGGAACTGGATCCGGAAATTCCCAGGGAATAAACTTGAGTACATGGGGTACATAAGCTGCAGTGGTAGCACTTACTACAATCCATCTCTCAAAAGTCGAATCTCCATCACTCGAGACACATCCAAGAACCAGTACTACCTGCAGTTGAATTCTGTGACTACTGAGGACACAGCCACATATTACTGT'
p78
sg24
g68
sg25
F1
sg26
I1
sg27
Nsg28
I9
sg29
F1
sg30
(lp79
sg38
S'simcell_113'
p80
sbasg38
S'simcell_114'
p81
sbag4
(g5
g6
NtRp82
(dp83
g9
I00
sg10
I8
sg11
g12
((lp84
g14
ag15
ag16
ag17
ag18
ag10
ag19
ag20
atRp85
sg22
S'GGACCTAGCCTCGTGAAGCCTTCTCAGACTCTGTCCCTCACCTGTTCTGTCACTGGCGACTCCATCACCAGTGGTTACTGGAACTGGATCCGGAAATTCCCAGGGAATAAACTTGAGTACATGGGGTACATAAGCTACAGTGGTAGCACTTACTACAATCCATCTCTCAAAAGTCGAATCTCCATCACTCGAGACACATCCAAGAACCAGTACTACCTGCAGTTGAATTCTGTGACTACTGAGGACACAGCCACATATTACTGT'
p86
sg24
g7
sg25
F1
sg26
I4
sg27
Nsg28
I5
sg29
F1
sg30
(lp87
g4
(g5
g6
NtRp88
(dp89
g9
I00
sg10
I1
sg11
g12
((lp90
g14
ag15
ag16
ag17
ag18
ag10
ag19
ag20
atRp91
sg22
S'GGACCTAGCCTCGTGAAGCCTTCTCAGACTCTGTCCCTCACGTGTTCTGTCACTGGCGACTCCATCACCAGTGGTTACTGGAACTGGATCCGGAAACTCCCAGGGAATAAACTTGAGTACATGGGGTACAGAAGCTACAGTGGTAGCACTTACTACAATCCATCTCTCAAAAGTCGAATCTCCATCACTCGAGACACATCCAAGAACCAGTACTACCTGCAGTTGAATTCTGTGACTACTGAGGACACAGCCACATATTACTGT'
p92
sg24
g82
sg25
F3
sg26
I1
sg27
Nsg28
I9
sg29
F1
sg30
(lp93
sg38
S'simcell_107'
p94
sbag4
(g5
g6
NtRp95
(dp96
g9
I00
sg10
I3
sg11
g12
((lp97
g14
ag15
ag16
ag17
ag18
ag10
ag19
ag20
atRp98
sg22
S'GGACCTAGCCTCGTGAAGCCTTCTCAGACTCTGTCCCTCACCTGTTCTGTCACTGGCGACTCCATCACCAGTGGTTACTGGAACTGGATCCGGAAATTCCCAGGGAATAAACTTGAGTACATGGGGTACATAAGCTACAGTGGTAGCACTTACTACAATCCATCTCTCAAAAGTCGAATCTCCATCACTCGAGACACATCCAAGAACCAGTACTAACTGCAGTTGAATTCTGTGACTACTGAGGACACAGCCACATATTACTGT'
p99
sg24
g82
sg25
F1
sg26
I2
sg27
Nsg28
I8
sg29
F1
sg30
(lp100
g4
(g5
g6
NtRp101
(dp102
g9
I00
sg10
I1
sg11
g12
((lp103
g14
ag15
ag16
ag17
ag18
ag10
ag19
ag20
atRp104
sg22
S'GGACCTAGCCTCGTGAAGCCTTCTCAGACTCTGTCCCTCACCTGTTCTGTCACTGGCGACTCCATCACCAGTGGTTACTGGAACTGGATCCGGAAATTCCCAGGGAATAAACTTGAGTACATGGGCTACATAAGCTACAGTGGTAGCACTTACTACAATCCATCTCTCAAAAGTCGAATCTCCATCACTCGAGACACATCCAAGAACCAGTACTAACTGCAGTTGAATTCTGTGACTACTGAGGACACAGCCACATATTACTGT'
p105
sg24
g95
sg25
F1
sg26
I1
sg27
Nsg28
I9
sg29
F1
sg30
(lp106
sg38
S'simcell_111'
p107
sbasg38
(S'simcell_110'
S'simcell_112'
tp108
sbasg38
(S'simcell_106'
S'simcell_105'
S'simcell_108'
S'simcell_109'
tp109
sbag4
(g5
g6
NtRp110
(dp111
g9
I00
sg10
I13
sg11
g12
((lp112
g14
ag15
ag16
ag17
ag18
ag10
ag19
ag20
atRp113
sg22
S'GGACCTAGCCTCGTGAAACCTTCTCAGACCCTGTCCCTCACCTGTTCTGTCACTGGCGACTCCATCACCAGTGGTTACTGGAACTGGATCCGGAAATTCCCAGGGAATAAACTTGAATACATGGGGTACATAGGCTACAGTGGTAGCACTTACTACAATCCATCTCTCAAAAGTCGAATCTCCATCACTCGAGACACATCCAAGAACCAGTACTACCTGCAGTTGAATTCTGTGACTACTGAGGACACAGCCACATATTACTGT'
p114
sg24
g7
sg25
F3
sg26
I6
sg27
Nsg28
I5
sg29
F1
sg30
(lp115
g4
(g5
g6
NtRp116
(dp117
g9
I00
sg10
I1
sg11
g12
((lp118
g14
ag15
ag16
ag17
ag18
ag10
ag19
ag20
atRp119
sg22
S'GGACCTAGCCTCGTGAAACCTTCTCAGACCCTGTCCCTCACCTGTTCTGTCACTGGCGACTCCATCACCAGTGGTTACTGGAACTGGATCCGGAAATTCCCAGGGAGTAAACTTGAATACATGGGGTACATAGGCTACAGTGGTAGCACTTACTACAATCCATCTCTCGAAAGTCGAATCTCCATCACTCGAGACACATCCAAGAACCAGTACTACCTGCAGTTGAATTCTGTGACTACTGAGGACACAGCCACATATTACTGT'
p120
sg24
g110
sg25
F2
sg26
I1
sg27
Nsg28
I9
sg29
F1
sg30
(lp121
sg38
S'simcell_72'
p122
sbag4
(g5
g6
NtRp123
(dp124
g9
I00
sg10
I3
sg11
g12
((lp125
g14
ag15
ag16
ag17
ag18
ag10
ag19
ag20
atRp126
sg22
S'GGACCTAGCCTCGTGAAACCTTCTCAGACCCTGTCCCTCACCTGTTCTGTCACTGGCGACTCCATCACCAGTGGTTACTGGAACTGGATCCGGAAATTCCCAGGGAATAAACTTGAATACATGGGGTGCATAGGCTACAGTGGTAGCACTTACTACAATCCATCTCTCAAAAGTCGAATCTCCATCACTCGAGACACATCCAAGAACCAGTACTACCTGCAGTTGAATTCTGTGACTACTGAGGACACAGCCACATATTACTGA'
p127
sg24
g110
sg25
F2
sg26
I2
sg27
Nsg28
I8
sg29
F1
sg30
(lp128
g4
(g5
g6
NtRp129
(dp130
g9
I00
sg10
I1
sg11
g12
((lp131
g14
ag15
ag16
ag17
ag18
ag10
ag19
ag20
atRp132
sg22
S'GGACCTAGCCTCGTGAAACCTTCTCAGACCCTGTCCCTCACCTGTTCTGTCACTGGCGACTCCATCACCAGTGGTTACTGGAACTGGATCCGGAAATTCCCAGGGAATAAACTTGATTACATGGGGTGCATAGGCTACAGTGGTAGCACTTACTACAATCCATCTCTCAAAAGTCGAATCTCCATCACTCGAGACACATCCAAGAACCAGTACTACCTGCAGTTGAATTCTGTGACTACTGAGGACACAGCCACATATTACTGA'
p133
sg24
g123
sg25
F1
sg26
I1
sg27
Nsg28
I9
sg29
F1
sg30
(lp134
sg38
S'simcell_67'
p135
sbasg38
(S'simcell_65'
S'simcell_66'
tp136
sbag4
(g5
g6
NtRp137
(dp138
g9
I00
sg10
I3
sg11
g12
((lp139
g14
ag15
ag16
ag17
ag18
ag10
ag19
ag20
atRp140
sg22
S'GGACCTAGCCTCGTGAAACCTTCTCAGACCCTGTCCCTCACCTGTTCTGTCACTGGCGACTCCATCACCAGTGGTTACTGGAACTGGATCCGGAAATTCCCCGGGAATAAACTTGAATACATGGGGTACATAGGCTACAGTGGTAGCACTTACTACAATCCATCTCTCAAAAGTCGAATCTCCATCACTCGAGACACATCCAAGAACCAGTACTACCTGCAGTTGAATTCTGTGACTACTGAGGACACAGCCACATATTACTGT'
p141
sg24
g110
sg25
F1
sg26
I2
sg27
Nsg28
I8
sg29
F1
sg30
(lp142
g4
(g5
g6
NtRp143
(dp144
g9
I00
sg10
I1
sg11
g12
((lp145
g14
ag15
ag16
ag17
ag18
ag10
ag19
ag20
atRp146
sg22
S'GGACCTAGCCTCGTGAAACCTTCTCAGACCCTGTCCCTCACCTGTTCTGTCACTGGCGACTCCATCACCAGTGGTTACTGGAACTGGATCCGGAAATTCCCCGGGAATAAACTTGAATACATGGGGTACATAGGCTACAGTGGTAGAACTTACTACAATCCATCTCTCAAAAGTCGAATCTCCATCACTCGAGACACATCCAAGAACCAGTACTACCTGCAGTTGAATTCTGTGACTACTGAGGACACAGCCACATATTACTGT'
p147
sg24
g137
sg25
F1
sg26
I1
sg27
Nsg28
I9
sg29
F1
sg30
(lp148
sg38
S'simcell_69'
p149
sbasg38
(S'simcell_71'
S'simcell_70'
tp150
sbasg38
(S'simcell_73'
S'simcell_68'
S'simcell_77'
S'simcell_76'
S'simcell_75'
S'simcell_74'
tp151
sbasg38
(S'simcell_1'
S'simcell_93'
S'simcell_90'
S'simcell_79'
S'simcell_78'
S'simcell_95'
S'simcell_94'
S'simcell_99'
S'simcell_97'
S'simcell_86'
S'simcell_87'
S'simcell_84'
S'simcell_96'
S'simcell_82'
S'simcell_83'
S'simcell_80'
S'simcell_81'
S'simcell_91'
S'simcell_104'
S'simcell_101'
S'simcell_102'
S'simcell_103'
S'simcell_89'
tp152
sbsS'frame'
p153
NsS'params'
p154
NsS'_nparams'
p155
I2
sb.