(i__main__
CollapsedForest
p1
(dp2
S'n_trees'
p3
I1
sS'frame'
p4
NsS'tree'
p5
NsS'_nparams'
p6
I2
sS'params'
p7
(lp8
F0.49494949482104633
aF0.17346938773074116
asS'forest'
p9
((i__main__
CollapsedTree
p10
(dp11
g5
ccopy_reg
_reconstructor
p12
(cete3.coretype.tree
TreeNode
p13
c__builtin__
object
p14
NtRp15
(dp16
S'partition'
p17
I50
sS'features'
p18
c__builtin__
set
p19
((lp20
S'dist'
p21
aS'name'
p22
aS'sequence'
p23
aS'support'
p24
ag17
aS'frequency'
p25
atRp26
sS'sequence'
p27
S'GGACCTAGCCTCGTGAAACCTTCTCAGACTCTGTCCCTCACCTGTTCTGTCACTGGCGACTCCATCACCAGTGGTTACTGGAACTGGATCCGGAAATTCCCAGGGAATAAACTTGAGTACATGGGGTACATAAGCTACAGTGGTAGCACTTACTACAATCCATCTCTCAAAAGTCGAATCTCCATCACTCGAGACACATCCAAGAACCAGTACTACCTGCAGTTGAATTCTGTGACTACTGAGGACACAGCCACATATTACTGT'
p28
sS'_up'
p29
NsS'_dist'
p30
F0
sS'frequency'
p31
I22
sS'_img_style'
p32
NsS'_support'
p33
F1
sS'_children'
p34
(lp35
g12
(g13
g14
NtRp36
(dp37
g17
I1
sg18
g19
((lp38
g21
ag22
ag23
ag24
ag17
ag25
atRp39
sg27
S'GGACCCAGCCTCGTGAAACCTTCTCAGACTCTGTCCCTCACCTGTTCTGTCACTGGCGACTCCATCACCAGTGGTTACTGGAACTGGATCCGGAAATTCCCAGGGAATAAACTTGAGTACATGGGGTACATAAGCTACAGTGGTAGCACTTACTACAATCCATCTCTCAAAAGTCGAATCTCCATCACTCGAGACACATCCAAGAACCAGTACTACCTGCAGTTGAATTCTGTGACTACTGAGGACACAGCCACATATTACTGT'
p40
sg29
g15
sg30
F1
sg31
I1
sg32
Nsg33
F1
sg34
(lp41
sS'name'
p42
S'seq8'
p43
sbag12
(g13
g14
NtRp44
(dp45
g17
I1
sg18
g19
((lp46
g21
ag22
ag23
ag24
ag17
ag25
atRp47
sg27
S'GGACCTAGCCTCGTGAAACCTTCTCAGACTCTGTCCCTCACCTGTTCTGTCACTGGCGACTCCATCACCAGTGGTTACTGGAACTGGATCCGGAAATTCCCAGGGAATAAACTTGAGTACATGGGGTACATAAGCTACAGTGGTAGCACTTACTACAATCCATCTCTCAAAAGTCGAATCTCCATCACTCGAGACACATCCAAGAACCAGTACTACCTGCAGTTGAATTCTGGGACTACTGAGGACACAGCCACATATTAATGT'
p48
sg29
g15
sg30
F2
sg31
I1
sg32
Nsg33
F1
sg34
(lp49
sg42
S'seq11'
p50
sbag12
(g13
g14
NtRp51
(dp52
g17
I1
sg18
g19
((lp53
g21
ag22
ag23
ag24
ag17
ag25
atRp54
sg27
S'GGACCTAGCCTCGTGAAACCTTCTCAGACTCTGTCCCTCACCTGTTCTGTCACTGGCGACTCCATCACCAGTGGTTACTGGAACTGGATCCGGAAATTCCCAGGGAATAAACTTGAGTACATGGGGTACATAAGCTAGAGTGGTAGCACTTACTACAATCCATCTCTCAAAAGTCGAATCTCCATCACTCGAGACACATCCAAGAACCAGTACTACCTGCAGTTGAATTCTGTGACTACTGAGGACACAGCCACATATTACTGT'
p55
sg29
g15
sg30
F1
sg31
I1
sg32
Nsg33
F1
sg34
(lp56
sg42
S'seq3'
p57
sbag12
(g13
g14
NtRp58
(dp59
g17
I1
sg18
g19
((lp60
g21
ag22
ag23
ag24
ag17
ag25
atRp61
sg27
S'GGACCTAGCCTCGTGAAACCTTCTCAGACTCTGTCCCTCACCTGTTCTGTCACTGGCGACTCCATCACCAGTGGTTACTGGAACTGGATCCGGAAATTCCCAGGGAATAAACTTGAGTACATGGGGTACATAAGCTATAGTGGTAGCACTTACTACAATCCATCTCTCAAAAGTCGAATCTCCATCACTCGAGACACATCCAAGAACCAGTACTACCTGCAGTTGAATTCTGTGACTACTGAGGACACAGCCACATATTACTGT'
p62
sg29
g15
sg30
F1
sg31
I1
sg32
Nsg33
F1
sg34
(lp63
sg42
S'seq17'
p64
sbag12
(g13
g14
NtRp65
(dp66
g17
I1
sg18
g19
((lp67
g21
ag22
ag23
ag24
ag17
ag25
atRp68
sg27
S'GGACCTAGCCTCGTGAAACCTTCTCAGACTCTGTCCCTCACCTGTTCTGTCACTGGCGACTCCATCACCAGTGGTTACTGGAACTGGATCCGGAAATTCCCAGGGAGTAAACTTGAGTACATGGGGTACATAAGCTACAGTGGTAGCACTTACTGCAATCCATCTCTCAAAAGTCGAATCTCCATCACTCGAGACACATCCAAGAACCAGTACTACCTGCAGTTGAATTCTGTGACTACTGAGGACACAGCCACATATTACTGT'
p69
sg29
g15
sg30
F2
sg31
I1
sg32
Nsg33
F1
sg34
(lp70
sg42
S'seq15'
p71
sbag12
(g13
g14
NtRp72
(dp73
g17
I2
sg18
g19
((lp74
g21
ag22
ag23
ag24
ag17
ag25
atRp75
sg27
S'GGACCTAGCCTCGTGAAAACTTCTCAGACTCTGTCCCTCACCTGTTCTGTCACTGGCGACTCCATCACCAGTGGTTACTGGAACTGGATCCGGAAATTCCCAGGGAATAAACTTGAGTACATGGGGTACATAAGCTACAGTGGTAGCACTTACTACAATCCATCTCTCAAAAGTCGAATCTCCATCACTCGAGACACATCCAAGAACCAGTACTACCTGCAGTTGAATTCTGTGACTACTGAGGACACAGCCACATATTACTGT'
p76
sg29
g15
sg30
F1
sg31
I1
sg32
Nsg33
F1
sg34
(lp77
g12
(g13
g14
NtRp78
(dp79
g17
I1
sg18
g19
((lp80
g21
ag22
ag23
ag24
ag17
ag25
atRp81
sg27
S'GGACCTAGCCTCGTGAAAACTTCTCAGACTCTGTCCCTCACCTGTTCTGTCACTGGCGACTCCATCACCAGTGGTTACTGGAACTGGATCCGGAAATTCCCAGGGAATAAACTTGAGTACATGGGGTACATAAGCTGCAGTGGTAGCACTTACTACAATCCATCTCTCAAAAGTCGAATCTCCATCACTCGAGACACATCCAAGAACCAGTACTACCTGCAGTTGAATTCTGTGACTACTGAGGACACAGCCACATATTACTGT'
p82
sg29
g72
sg30
F1
sg31
I1
sg32
Nsg33
F1
sg34
(lp83
sg42
S'seq4'
p84
sbasg42
S'seq12'
p85
sbag12
(g13
g14
NtRp86
(dp87
g17
I8
sg18
g19
((lp88
g21
ag22
ag23
ag24
ag17
ag25
atRp89
sg27
S'GGACCTAGCCTCGTGAAGCCTTCTCAGACTCTGTCCCTCACCTGTTCTGTCACTGGCGACTCCATCACCAGTGGTTACTGGAACTGGATCCGGAAATTCCCAGGGAATAAACTTGAGTACATGGGGTACATAAGCTACAGTGGTAGCACTTACTACAATCCATCTCTCAAAAGTCGAATCTCCATCACTCGAGACACATCCAAGAACCAGTACTACCTGCAGTTGAATTCTGTGACTACTGAGGACACAGCCACATATTACTGT'
p90
sg29
g15
sg30
F1
sg31
I4
sg32
Nsg33
F1
sg34
(lp91
g12
(g13
g14
NtRp92
(dp93
g17
I1
sg18
g19
((lp94
g21
ag22
ag23
ag24
ag17
ag25
atRp95
sg27
S'GGACCTAGCCTCGTGAAGCCTTCTCAGACTCTGTCCCTCACGTGTTCTGTCACTGGCGACTCCATCACCAGTGGTTACTGGAACTGGATCCGGAAACTCCCAGGGAATAAACTTGAGTACATGGGGTACAGAAGCTACAGTGGTAGCACTTACTACAATCCATCTCTCAAAAGTCGAATCTCCATCACTCGAGACACATCCAAGAACCAGTACTACCTGCAGTTGAATTCTGTGACTACTGAGGACACAGCCACATATTACTGT'
p96
sg29
g86
sg30
F3
sg31
I1
sg32
Nsg33
F1
sg34
(lp97
sg42
S'seq2'
p98
sbag12
(g13
g14
NtRp99
(dp100
g17
I3
sg18
g19
((lp101
g21
ag22
ag23
ag24
ag17
ag25
atRp102
sg27
S'GGACCTAGCCTCGTGAAGCCTTCTCAGACTCTGTCCCTCACCTGTTCTGTCACTGGCGACTCCATCACCAGTGGTTACTGGAACTGGATCCGGAAATTCCCAGGGAATAAACTTGAGTACATGGGGTACATAAGCTACAGTGGTAGCACTTACTACAATCCATCTCTCAAAAGTCGAATCTCCATCACTCGAGACACATCCAAGAACCAGTACTAACTGCAGTTGAATTCTGTGACTACTGAGGACACAGCCACATATTACTGT'
p103
sg29
g86
sg30
F1
sg31
I2
sg32
Nsg33
F1
sg34
(lp104
g12
(g13
g14
NtRp105
(dp106
g17
I1
sg18
g19
((lp107
g21
ag22
ag23
ag24
ag17
ag25
atRp108
sg27
S'GGACCTAGCCTCGTGAAGCCTTCTCAGACTCTGTCCCTCACCTGTTCTGTCACTGGCGACTCCATCACCAGTGGTTACTGGAACTGGATCCGGAAATTCCCAGGGAATAAACTTGAGTACATGGGCTACATAAGCTACAGTGGTAGCACTTACTACAATCCATCTCTCAAAAGTCGAATCTCCATCACTCGAGACACATCCAAGAACCAGTACTAACTGCAGTTGAATTCTGTGACTACTGAGGACACAGCCACATATTACTGT'
p109
sg29
g99
sg30
F1
sg31
I1
sg32
Nsg33
F1
sg34
(lp110
sg42
S'seq14'
p111
sbasg42
S'seq7'
p112
sbasg42
S'seq6'
p113
sbag12
(g13
g14
NtRp114
(dp115
g17
I13
sg18
g19
((lp116
g21
ag22
ag23
ag24
ag17
ag25
atRp117
sg27
S'GGACCTAGCCTCGTGAAACCTTCTCAGACCCTGTCCCTCACCTGTTCTGTCACTGGCGACTCCATCACCAGTGGTTACTGGAACTGGATCCGGAAATTCCCAGGGAATAAACTTGAATACATGGGGTACATAGGCTACAGTGGTAGCACTTACTACAATCCATCTCTCAAAAGTCGAATCTCCATCACTCGAGACACATCCAAGAACCAGTACTACCTGCAGTTGAATTCTGTGACTACTGAGGACACAGCCACATATTACTGT'
p118
sg29
g15
sg30
F3
sg31
I6
sg32
Nsg33
F1
sg34
(lp119
g12
(g13
g14
NtRp120
(dp121
g17
I1
sg18
g19
((lp122
g21
ag22
ag23
ag24
ag17
ag25
atRp123
sg27
S'GGACCTAGCCTCGTGAAACCTTCTCAGACCCTGTCCCTCACCTGTTCTGTCACTGGCGACTCCATCACCAGTGGTTACTGGAACTGGATCCGGAAATTCCCAGGGAGTAAACTTGAATACATGGGGTACATAGGCTACAGTGGTAGCACTTACTACAATCCATCTCTCGAAAGTCGAATCTCCATCACTCGAGACACATCCAAGAACCAGTACTACCTGCAGTTGAATTCTGTGACTACTGAGGACACAGCCACATATTACTGT'
p124
sg29
g114
sg30
F2
sg31
I1
sg32
Nsg33
F1
sg34
(lp125
sg42
S'seq16'
p126
sbag12
(g13
g14
NtRp127
(dp128
g17
I3
sg18
g19
((lp129
g21
ag22
ag23
ag24
ag17
ag25
atRp130
sg27
S'GGACCTAGCCTCGTGAAACCTTCTCAGACCCTGTCCCTCACCTGTTCTGTCACTGGCGACTCCATCACCAGTGGTTACTGGAACTGGATCCGGAAATTCCCAGGGAATAAACTTGAATACATGGGGTGCATAGGCTACAGTGGTAGCACTTACTACAATCCATCTCTCAAAAGTCGAATCTCCATCACTCGAGACACATCCAAGAACCAGTACTACCTGCAGTTGAATTCTGTGACTACTGAGGACACAGCCACATATTACTGA'
p131
sg29
g114
sg30
F2
sg31
I2
sg32
Nsg33
F1
sg34
(lp132
g12
(g13
g14
NtRp133
(dp134
g17
I1
sg18
g19
((lp135
g21
ag22
ag23
ag24
ag17
ag25
atRp136
sg27
S'GGACCTAGCCTCGTGAAACCTTCTCAGACCCTGTCCCTCACCTGTTCTGTCACTGGCGACTCCATCACCAGTGGTTACTGGAACTGGATCCGGAAATTCCCAGGGAATAAACTTGATTACATGGGGTGCATAGGCTACAGTGGTAGCACTTACTACAATCCATCTCTCAAAAGTCGAATCTCCATCACTCGAGACACATCCAAGAACCAGTACTACCTGCAGTTGAATTCTGTGACTACTGAGGACACAGCCACATATTACTGA'
p137
sg29
g127
sg30
F1
sg31
I1
sg32
Nsg33
F1
sg34
(lp138
sg42
S'seq5'
p139
sbasg42
S'seq13'
p140
sbag12
(g13
g14
NtRp141
(dp142
g17
I3
sg18
g19
((lp143
g21
ag22
ag23
ag24
ag17
ag25
atRp144
sg27
S'GGACCTAGCCTCGTGAAACCTTCTCAGACCCTGTCCCTCACCTGTTCTGTCACTGGCGACTCCATCACCAGTGGTTACTGGAACTGGATCCGGAAATTCCCCGGGAATAAACTTGAATACATGGGGTACATAGGCTACAGTGGTAGCACTTACTACAATCCATCTCTCAAAAGTCGAATCTCCATCACTCGAGACACATCCAAGAACCAGTACTACCTGCAGTTGAATTCTGTGACTACTGAGGACACAGCCACATATTACTGT'
p145
sg29
g114
sg30
F1
sg31
I2
sg32
Nsg33
F1
sg34
(lp146
g12
(g13
g14
NtRp147
(dp148
g17
I1
sg18
g19
((lp149
g21
ag22
ag23
ag24
ag17
ag25
atRp150
sg27
S'GGACCTAGCCTCGTGAAACCTTCTCAGACCCTGTCCCTCACCTGTTCTGTCACTGGCGACTCCATCACCAGTGGTTACTGGAACTGGATCCGGAAATTCCCCGGGAATAAACTTGAATACATGGGGTACATAGGCTACAGTGGTAGAACTTACTACAATCCATCTCTCAAAAGTCGAATCTCCATCACTCGAGACACATCCAAGAACCAGTACTACCTGCAGTTGAATTCTGTGACTACTGAGGACACAGCCACATATTACTGT'
p151
sg29
g141
sg30
F1
sg31
I1
sg32
Nsg33
F1
sg34
(lp152
sg42
S'seq1'
p153
sbasg42
S'seq10'
p154
sbasg42
S'seq9'
p155
sbasg42
S'naive'
p156
sbsg4
Nsg7
Nsg6
I2
sbtp157
sb.