(i__main__
CollapsedTree
p1
(dp2
S'tree'
p3
ccopy_reg
_reconstructor
p4
(cete3.coretype.tree
TreeNode
p5
c__builtin__
object
p6
NtRp7
(dp8
S'terminated'
p9
I00
sS'partition'
p10
I50
sS'features'
p11
c__builtin__
set
p12
((lp13
S'terminated'
p14
aS'dist'
p15
aS'name'
p16
aS'sequence'
p17
aS'support'
p18
ag10
aS'frequency'
p19
aS'time'
p20
atRp21
sS'sequence'
p22
S'GGACCTAGCCTCGTGAAACCTTCTCAGACTCTGTCCCTCACCTGTTCTGTCACTGGCGACTCCATCACCAGTGGTTACTGGAACTGGATCCGGAAATTCCCAGGGAATAAACTTGAGTACATGGGGTACATAAGCTACAGTGGTAGCACTTACTACAATCCATCTCTCAAAAGTCGAATCTCCATCACTCGAGACACATCCAAGAACCAGTACTACCTGCAGTTGAATTCTGTGACTACTGAGGACACAGCCACATATTACTGT'
p23
sS'_up'
p24
NsS'_dist'
p25
F0
sS'frequency'
p26
I0
sS'_img_style'
p27
NsS'time'
p28
I0
sS'_support'
p29
F1
sS'_children'
p30
(lp31
g4
(g5
g6
NtRp32
(dp33
g9
I00
sg10
I50
sg11
g12
((lp34
g14
ag15
ag16
ag17
ag18
ag10
ag19
ag20
atRp35
sg22
S'GGACCTAGCCTCGTGAAACCTTCTCAGACTCTGTCCCTCACCTGTTCTGTCACTGGCGACTCCATCACCAGTGGTTACTGGAACTGGATCCGGAAATTCCCAGGGAATAAACTTGAGTACATGGGGTACATAAGCTACAGTGGTAGCACTTACTACAATCCATCTCTCAAAAGTCGAATCTCCATCACTCGAGACACATCCAAGAACCAGTACTGCCTGCAGTTGAATTCTGTGACTACTGAGGACACAGCCACATATTACTGT'
p36
sg24
g7
sg25
F1
sg26
I0
sg27
Nsg28
I3
sg29
F1
sg30
(lp37
g4
(g5
g6
NtRp38
(dp39
g9
I00
sg10
I15
sg11
g12
((lp40
g14
ag15
ag16
ag17
ag18
ag10
ag19
ag20
atRp41
sg22
S'GGACCTAGCCTCGTGAAACCTTCTCAGACTCTGTCCCTCACCTGTTCTGTCACTGGCGACTCCATCACCAGTGGTTACTGGAACTGGATCCGGAAATTCCCAGGGAATAAACTTGAGTACATGGGGTACATAAGCTACAGTGGTAGCACTTACTACAATCCATCTCTCAAAAGTCGAATCTCCATCACTCGAGACACATCCAAGAACCAGTACTGCCTGCAGTTGAATTCTGTGACTACTGAGGACACAGCCACATACTACTGT'
p42
sg24
g32
sg25
F1
sg26
I2
sg27
Nsg28
I6
sg29
F1
sg30
(lp43
g4
(g5
g6
NtRp44
(dp45
g9
I00
sg10
I2
sg11
g12
((lp46
g14
ag15
ag16
ag17
ag18
ag10
ag19
ag20
atRp47
sg22
S'GGACCTAGCCTCGTGAAACCTTCTCAGACTCTGTCCCTCACCTGTTCTGTCACTGGCGACTCCATCACCAGTGGTTACTGGAACTGGATCCGGAAATTCCCAGGGAATAAACTTGAGTACATGGGGTACATAAGCTACAGTGATAGCACTTACTACAATCCATCTCTCAAAAGTCGAATCTCCATCACTCGGGACACATCCAAGAACCAGTACTGCCTGCAGTTGAATTCTGTGACTACTGAGGACACAGCCACATACTACTGT'
p48
sg24
g38
sg25
F2
sg26
I2
sg27
Nsg28
I9
sg29
F1
sg30
(lp49
sS'name'
p50
(S'simcell_77'
S'simcell_76'
tp51
sbag4
(g5
g6
NtRp52
(dp53
g9
I00
sg10
I5
sg11
g12
((lp54
g14
ag15
ag16
ag17
ag18
ag10
ag19
ag20
atRp55
sg22
S'GGACCTAGCCTCGTGAAACCTTCTCAGACTCTGTCCCTCACCTGTTCTGTCACTGGCGACTCCATCACCAGTGGTTACTGGAACTGGATCCGGAAATTCCCAGGGAATAAACTTGAGTACATGGGGTACATAAGCTACAGTGGGAGCACTTACTACAATCCATCTCTCAAAAGTCGAATCTCCATCACTCGAGACACATCCAAGAACCAGTACTGCCTGCAGTTGAATTCTGTGACTACTGAGGACACAGCCACATACTACTGT'
p56
sg24
g38
sg25
F1
sg26
I0
sg27
Nsg28
I8
sg29
F1
sg30
(lp57
g4
(g5
g6
NtRp58
(dp59
g9
I00
sg10
I2
sg11
g12
((lp60
g14
ag15
ag16
ag17
ag18
ag10
ag19
ag20
atRp61
sg22
S'GGACCTAGCCTCGTGAAACCTTCTCAGACTCTGTCCCTCACCTGTTCTGTCACTGGCGACTCCATCACCAGTGGTTACTGGAACTGGATCCGGAAATTCCCAGGGAATAAACTTGAGTACATGGGGTACATAAGCTACAGTGGGAGCACTTACTACAATCCATCTCTCAAAAGTCGAATCCCCATCACTCGAGACACATCCAAGAACCAGTACTGCCTGCAGTTGAATTCTGTGACTACTGAGGACACAGCCACATACTACTGT'
p62
sg24
g52
sg25
F1
sg26
I2
sg27
Nsg28
I9
sg29
F1
sg30
(lp63
sg50
(S'simcell_84'
S'simcell_83'
tp64
sbag4
(g5
g6
NtRp65
(dp66
g9
I00
sg10
I3
sg11
g12
((lp67
g14
ag15
ag16
ag17
ag18
ag10
ag19
ag20
atRp68
sg22
S'GGACCTAGCCTCGTGAAACCTTCTCAGACTCTGTCCCTCACCTGTTCTGTCACTGGCGACTCCATCACCAGCGGTTACTGGAACTGGATCCGGAAATTCCCAGGGAATAAACTTGAGTACATGGGGTACATAAGCTACAGTGGGAGCACTTACTACAATCCATCTCTCAAAAGTCGAATCTCCATCACTCGAGACACATCCAAGAACCAGTACTGCCTGCAGTTGAATTCTGTGACTACTGAGGACACAGCCACATACTACTGT'
p69
sg24
g52
sg25
F1
sg26
I3
sg27
Nsg28
I9
sg29
F1
sg30
(lp70
sg50
(S'simcell_82'
S'simcell_80'
S'simcell_81'
tp71
sbasg50
S'simcell_26'
p72
sbag4
(g5
g6
NtRp73
(dp74
g9
I00
sg10
I6
sg11
g12
((lp75
g14
ag15
ag16
ag17
ag18
ag10
ag19
ag20
atRp76
sg22
S'GGACCTAGCCTCGTGAAACCTTCTCAGACTCTGTCCCTCACCTGTTCTGTCACTGGCGACTCCATCACCAGTGGTTACTGGAACTGGATCCGGAAATTCCCAGGGAATAAACTTGTGTACATGGGGTACATAAGCTACAGTGGTAGCACTTACTACAATCCATCTCTCAAAAGTCGAATCTCCATCACTCGAGACACATCCAAGAACCAGTACTGCCTGCAGTTGAATTCTGTGACTACTGAGGACACAGCCACATACTACTGT'
p77
sg24
g38
sg25
F1
sg26
I1
sg27
Nsg28
I7
sg29
F1
sg30
(lp78
g4
(g5
g6
NtRp79
(dp80
g9
I00
sg10
I1
sg11
g12
((lp81
g14
ag15
ag16
ag17
ag18
ag10
ag19
ag20
atRp82
sg22
S'GGACCTAGCCTCGTGAAACCTTCTCAGACTCTGTCCCTCACCTGTTCTGTCACTGGCGACTCCATCACCAGTGGTTACTGAAACTGGATCCGGAAATTCCCAGGGAATAAACTTGTGTACATGGGGTACATAAGCTACAGTGGTAGCACTTACTACAATCCATCTCTCAAAAGTCGAATCTCCATCACTCGAGACACATCCAAGAACCAGTACTGCCTGCAGTTGAATTCTGTGACTACTGAGGACACAGCCACATACTACTGT'
p83
sg24
g73
sg25
F1
sg26
I1
sg27
Nsg28
I10
sg29
F1
sg30
(lp84
sg50
S'simcell_85'
p85
sbag4
(g5
g6
NtRp86
(dp87
g9
I00
sg10
I1
sg11
g12
((lp88
g14
ag15
ag16
ag17
ag18
ag10
ag19
ag20
atRp89
sg22
S'GGACCTAGCCTCGTGAAACCTTCTCAGACTCTGTCCCTCACCTGTTCTGTCACTGGCGACTCCATCACCAGTGGTTACTGGAACTGGATCCGGAAATTCCCAGGGAATAAACTTGTGTACATGGGGTACATAAGCTACAGTGGTAGCACTTACTACAATCCATCTCTCAAAAGTCGAATCTCCATCACTCGAGACACATCCAAGAACCAGTACTGCCTGCAGTTGAATTCTGTGACTACTGAGGACACAGCCTCATACTACTGT'
p90
sg24
g73
sg25
F1
sg26
I1
sg27
Nsg28
I10
sg29
F1
sg30
(lp91
sg50
S'simcell_86'
p92
sbag4
(g5
g6
NtRp93
(dp94
g9
I00
sg10
I1
sg11
g12
((lp95
g14
ag15
ag16
ag17
ag18
ag10
ag19
ag20
atRp96
sg22
S'GGACCTAGCCTCGTGAAACCTTCTCAGACTCTGTCCCTCACCTGTTCTGTCACTGGCGACTCCATCACCAGTGGTTACTGGAACTGGATCCGGAAATTCCCAGGGAATAAACTTGTGTACATGGGGTACATAAGCTACAGTGGTAGCACTTACTACAATCCATCTCTCAAAAGTCGAATCTCCATCACTCGAGACACATCCAAGAACCAGTACTGCCTGCAGTTGAATTCTGTGACTACTGATGACACAGCCACATACTACTGT'
p97
sg24
g73
sg25
F1
sg26
I1
sg27
Nsg28
I10
sg29
F1
sg30
(lp98
sg50
S'simcell_88'
p99
sbag4
(g5
g6
NtRp100
(dp101
g9
I00
sg10
I1
sg11
g12
((lp102
g14
ag15
ag16
ag17
ag18
ag10
ag19
ag20
atRp103
sg22
S'GGACCTAGCCTCGTGAAACCTTCTCAGACTCTGTCCCTCACCTGTTCTGTCACTGGCGACTCCATCACCAGTGGTTACTGGAACTGGATCCGGAAATTCCCAGGGAATAAACTTGTGTACATGGGGTACATAAGCTACAGTGGTAGCACTTACTACAATCCATCTCTCAAAAGTCGATTCTCCATCACTCGAGACACATCCAAGAACCAGTACTGCCTGCAGTTGAATTCTGTGACTACTGAGGACACAGCCACATACTACTGT'
p104
sg24
g73
sg25
F1
sg26
I1
sg27
Nsg28
I10
sg29
F1
sg30
(lp105
sg50
S'simcell_87'
p106
sbag4
(g5
g6
NtRp107
(dp108
g9
I00
sg10
I1
sg11
g12
((lp109
g14
ag15
ag16
ag17
ag18
ag10
ag19
ag20
atRp110
sg22
S'GGACCTAGCCTCGTGAAACCTTCTCAGACTCTGTCCCTCACCTGTTCTGTCACTGGCGACTCCATCACCAGTGGTTACTGGAACTGGGTCCGGAAATTCCCAGGGAATAAACTTGTGTACATGGGGTACATAAGCTACAGTGGTAGCACTTACTACAATCCATCTCTCAAAAGTCGAATCTCCATCACTCGAGACACATCCAAGAACCAGTACTGCCTGCAGTTGAATTCTGTGACTACTGAGGACACAGCCACATACTACTGT'
p111
sg24
g73
sg25
F1
sg26
I1
sg27
Nsg28
I10
sg29
F1
sg30
(lp112
sg50
S'simcell_89'
p113
sbasg50
S'simcell_90'
p114
sbasg50
(S'simcell_79'
S'simcell_78'
tp115
sbag4
(g5
g6
NtRp116
(dp117
g9
I00
sg10
I35
sg11
g12
((lp118
g14
ag15
ag16
ag17
ag18
ag10
ag19
ag20
atRp119
sg22
S'GGACCTAGCCTCGTGAAATCTTCTCAGACTCTGTCCCTCACCTGTTCTGTCACTGGCGACTCCATCACCAGTGGTTACTGGAACTGGATCCGGAAATTCCCAGGGAATAAACTTGAGTACATGGGGTACATAAGCTACAGTGGTAGCACTTACTACAATCCATCTCTCAAAAGTCGAATCTCCATCACTCGAGACACATCCAAGAACCAGTACTGCCTGCAGTTGAATTCTGTGACTACTGAGGACACAGCCACATATTACTGT'
p120
sg24
g32
sg25
F1
sg26
I7
sg27
Nsg28
I4
sg29
F1
sg30
(lp121
g4
(g5
g6
NtRp122
(dp123
g9
I00
sg10
I1
sg11
g12
((lp124
g14
ag15
ag16
ag17
ag18
ag10
ag19
ag20
atRp125
sg22
S'GGACCTAGCCTCGTGAAATCTTCTCAGACTCTGTCCCTCACCTGTTCTGTCACTGGCGACTCCATCACCAGTGGTTACTGGAACTGGATCCGGAAATTCCCAGGGAATAAACTTGAGTACATGGGGTACATAAGCTACAGTGGTAGCACTAACTACAATCCATCTCTCAAAAGTCGAATCTCCATCACTCGAGACACATCCAAGAACCAGTACTGCCTGCAGTTGAATTCTGTGACTACTGAGGACACAGCCACATATTACTGT'
p126
sg24
g116
sg25
F1
sg26
I1
sg27
Nsg28
I10
sg29
F1
sg30
(lp127
sg50
S'simcell_101'
p128
sbag4
(g5
g6
NtRp129
(dp130
g9
I00
sg10
I1
sg11
g12
((lp131
g14
ag15
ag16
ag17
ag18
ag10
ag19
ag20
atRp132
sg22
S'GGACCTAGCCTCGTGAAATCTTCTCAGACTCTGTCCCTCACCTGTTCTGTCACTGGCGACTCCATCACCAGTGGTTACTGGAACTGGATCCGGGAATTCCCAGGGAATAAACTTGAGTACATGGGGTACATAAGCTACAGTGGTAGCACTTACTACAATCCATCTCTCAAAAGTCGAATCTCCATCACTCGAGACACATCCAAGAACCAGTACTGCCTGCAGTTGAATTCTGTGACTACTGAGGACACAGCCACATATTACTGT'
p133
sg24
g116
sg25
F1
sg26
I1
sg27
Nsg28
I10
sg29
F1
sg30
(lp134
sg50
S'simcell_102'
p135
sbag4
(g5
g6
NtRp136
(dp137
g9
I00
sg10
I1
sg11
g12
((lp138
g14
ag15
ag16
ag17
ag18
ag10
ag19
ag20
atRp139
sg22
S'GGACCTAGCCTCGTGAAATCTTCTCAGACTCTGTCCCTCACCTGTTCTGTCACTGGCGACTCCATCACCAGTGGTTACTGGAACTGGGTCCGGAAATTCCCAGGGAATAAACTTGAGTACATGGGGTACATAAGCTACAGTGGTAGCACTTACTACAATCCATCTCTCAAAAGTCGAATCTCCATCACTCGAGACACATCCAAGAACCAGTACTGCCTGCAGTTGAATTCTGTGACTACTGAGGACACAGCCACATATTACTGT'
p140
sg24
g116
sg25
F1
sg26
I1
sg27
Nsg28
I10
sg29
F1
sg30
(lp141
sg50
S'simcell_103'
p142
sbag4
(g5
g6
NtRp143
(dp144
g9
I00
sg10
I1
sg11
g12
((lp145
g14
ag15
ag16
ag17
ag18
ag10
ag19
ag20
atRp146
sg22
S'GGACCTAGCCTCGTGAGATCTTCTCAGACTCTGTCCCTCACCTGTTCTGTCACTGGCGACTCCATCACCAGTGGTTACTGGAACTGGATCCGGAAATTCCCAGGGAATAAACTTGAGTACATGGGGTACATAAGCTACAGTGGTAGCACTTACTACAATCCATCTCTCAAAAGTCGAATCTCCATCACTCGAGACACATCCAAGAACCAGTACTGCCTGCAGTTGAATTCTGTGACTACTGAGGACACAGCCACATATTACTGT'
p147
sg24
g116
sg25
F1
sg26
I1
sg27
Nsg28
I10
sg29
F1
sg30
(lp148
sg50
S'simcell_98'
p149
sbag4
(g5
g6
NtRp150
(dp151
g9
I00
sg10
I2
sg11
g12
((lp152
g14
ag15
ag16
ag17
ag18
ag10
ag19
ag20
atRp153
sg22
S'GGACCTAGCCTCGTGAAATCTTCTCAGACTCTGTCCCTCACCTGTTCTGTCACTGGCGACTCCATCACCAGTGGTTACTGGAACTGGATCCGGAAATTCCCAGGGAATAAACTTGAGTACATGGGGTACATAAGCTACAGTGGTAGCACTTACTACAATCCATCTCTCAAAAGTCGAATCTCCATCACTCGAGACACATCCAAGAACCAGTACTGCCTGCAGTTGAACTCTGTGACTACTGAGGACACAGCCACATATTACTGT'
p154
sg24
g116
sg25
F1
sg26
I2
sg27
Nsg28
I9
sg29
F1
sg30
(lp155
sg50
(S'simcell_117'
S'simcell_116'
tp156
sbag4
(g5
g6
NtRp157
(dp158
g9
I00
sg10
I2
sg11
g12
((lp159
g14
ag15
ag16
ag17
ag18
ag10
ag19
ag20
atRp160
sg22
S'GGACCTAGCCTCGTGAAATCTTCTCAGACTCTGTCCCTCACCTGTTCTGTCACTGGCGACTCCATCACCAGTGGTTACTGGAACTGGATCCGGAAATTCCCAGGGAATAAACTTGAGTACATGGGGTACATAAGCTACAGTGGTAGCACTTACTACAATCCATCTCTCAAAAGTCGAATCTCCATCACTCGAGACACATCCAAGAACCAGTACTGCCTGCAGTTGAATTCTGTGACTACTGAGGACACAGCCACATATTCCTGT'
p161
sg24
g116
sg25
F1
sg26
I2
sg27
Nsg28
I9
sg29
F1
sg30
(lp162
sg50
(S'simcell_99'
S'simcell_100'
tp163
sbag4
(g5
g6
NtRp164
(dp165
g9
I00
sg10
I3
sg11
g12
((lp166
g14
ag15
ag16
ag17
ag18
ag10
ag19
ag20
atRp167
sg22
S'GGACCTAGCCTCGTGAAATCTTCTCAGACTCTGTCCCTCACCTGTTCTGTCACTGGCGACTCCATCACCAGTGGTTACTGGAACTGGATCCGGAAATTCCCAGGGAATAAACTTGAGTACATGGGGTACATAAGCTACAGTGGTAGCACTTAGTACAATCCATCTCTCAAAAGTCGAATCTCCATCACTCGAGACACATCCAAGAACCAGTACTGCCTGCAGTTGAATTCTGTGACTACTGAGGACACAGCCACATATTACTGT'
p168
sg24
g116
sg25
F1
sg26
I1
sg27
Nsg28
I9
sg29
F1
sg30
(lp169
g4
(g5
g6
NtRp170
(dp171
g9
I00
sg10
I1
sg11
g12
((lp172
g14
ag15
ag16
ag17
ag18
ag10
ag19
ag20
atRp173
sg22
S'GGACCTAGCCTCGTGAAATCTTCTCAGACTCTGTCCCTCACCTGTTCTGTCACTGGCGACTCCATCACCAGTCGTTACTGGAACTGGATCCGGAAATTCCCAGGGAATAAACTTGAGTACATGGGGTACATAAGCTACAGTGGTAGCACTTAGTACAATCCATCTCTCAAAAGTCGAATCTCCATCACTCGAGACACATCCAAGAACCAGTACTGCCTGCAGTTGAATTCTGTGACTACTGAGGACACAGCCACATATTACTGT'
p174
sg24
g164
sg25
F1
sg26
I1
sg27
Nsg28
I10
sg29
F1
sg30
(lp175
sg50
S'simcell_121'
p176
sbag4
(g5
g6
NtRp177
(dp178
g9
I00
sg10
I1
sg11
g12
((lp179
g14
ag15
ag16
ag17
ag18
ag10
ag19
ag20
atRp180
sg22
S'GGACCTAGCCTCGTGAAATCTTCTCAGACTCTGTCCCTCACCTGTTCTGTCACTGGCGACTCCATCACCAGTGGTTACTGGAACTGGATCCGGAAATTCCCAGGGAATAAACTTGAGTACATGGGGTACATAAGCTACAGTGGTAGCACTTAGTACAATCCATCTCTCAAAAGTCGAATCTCCATCACTCGAGACACATCCAAGAACCAGTACTGCCTGCAGTTGAATTCTGTGACTACTGAGGACACAGCCACATATTATTGT'
p181
sg24
g164
sg25
F1
sg26
I1
sg27
Nsg28
I10
sg29
F1
sg30
(lp182
sg50
S'simcell_122'
p183
sbasg50
S'simcell_120'
p184
sbag4
(g5
g6
NtRp185
(dp186
g9
I00
sg10
I7
sg11
g12
((lp187
g14
ag15
ag16
ag17
ag18
ag10
ag19
ag20
atRp188
sg22
S'GGACCTAGCCTCGTGAAATCTTCTCAGACTCTGTCCCTCACCTGTTCTGTCACTGGCGACTCCATCACCAGTGGTTACTGGAACTGGATCCGGAAATTCCCAGGGAATAAACTTGAGTACATGGGGTACATAAGGTACAGTGGTAGCACTTACTACAATCCATCTCTCAAAAGTCGAATCTCCATCACTCGAGACACATCCAAGAACCAGTACTGCCTGCAGTTGAATTCTGTGACTACTGAGGACACAGCCACATATTACTGT'
p189
sg24
g116
sg25
F1
sg26
I1
sg27
Nsg28
I7
sg29
F1
sg30
(lp190
g4
(g5
g6
NtRp191
(dp192
g9
I00
sg10
I2
sg11
g12
((lp193
g14
ag15
ag16
ag17
ag18
ag10
ag19
ag20
atRp194
sg22
S'GGACCCAGCCTCGTGAAATCTTCTCAGACTCTGTCCCTCACCTGTTCTGTCACTGGCGACTCCATCACCAGTGGTTACTGGAACTGGATCCGGAAATTCCCAGGGAATAAACTTGAGTACATGGGGTACATAAGGTACAGTGGTAGGACTTACTACAATCCATCTCTCAAAAGTCGAATCTCCATCACTCGAGACACATCCAAGAACCAGTACTGCCTGCAGTTGAATTCTGTGACTACTGAGGACACAGCCACATATTACTGT'
p195
sg24
g185
sg25
F2
sg26
I0
sg27
Nsg28
I9
sg29
F1
sg30
(lp196
g4
(g5
g6
NtRp197
(dp198
g9
I00
sg10
I1
sg11
g12
((lp199
g14
ag15
ag16
ag17
ag18
ag10
ag19
ag20
atRp200
sg22
S'GGACCCAGCCTCGTGAAATCTTCTCAGACTCTGTCCCTCACCTGTTCTGTCACTGGCGACTCCATCACCAGTGGTTACTGGAACTGGATCCGGAAATTCCCAGGGAATAAACTTGAGTACATGGGGTACATAAGGTACAGTGGTAGGACTTACTACAATCCATCTCTCAAAAGTCGAATCTCCATCACTCGAGACACATCCAAGAACCAGTACTGCCTGCAGTTGAATTCTGTGACTACTGAGGACACAGCCACATATTATTGT'
p201
sg24
g191
sg25
F1
sg26
I1
sg27
Nsg28
I10
sg29
F1
sg30
(lp202
sg50
S'simcell_92'
p203
sbag4
(g5
g6
NtRp204
(dp205
g9
I00
sg10
I1
sg11
g12
((lp206
g14
ag15
ag16
ag17
ag18
ag10
ag19
ag20
atRp207
sg22
S'GGACCCAGCCTCGTGAAATCTTCTCAGACTTTGTCCCTCACCTGTTCTGTCACTGGCGACTCCATCACCAGTGGTTACTGGAACTGGATCCGGAAATTCCCAGGGAATAAACTTGAGTACATGGGGTACATAAGGTACAGTGGTAGGACTTACTACAATCCATCTCTCAAAAGTCGAATCTCCATCACTCGAGACACATCCAAGAACCAGTACTGCCTGCAGTTGAATTCTGTGACTACTGAGGACACAGCCACATATTACTGT'
p208
sg24
g191
sg25
F1
sg26
I1
sg27
Nsg28
I10
sg29
F1
sg30
(lp209
sg50
S'simcell_91'
p210
sbasg50
S'simcell_54'
p211
sbag4
(g5
g6
NtRp212
(dp213
g9
I00
sg10
I2
sg11
g12
((lp214
g14
ag15
ag16
ag17
ag18
ag10
ag19
ag20
atRp215
sg22
S'GGACCTAGCCTCGTGAAATCTTCTCAGACTCTGTCCCTCACCTGTTCTGTCACTGGCGACTCCATCACCAGAGGTTACTGGAACTGGATCCGGAAATTCCCAGGGCATAAACTTGAGTACATGGGGTACATAAGGTACAGTGGTAGCACTTACTACAATCCATCTCTCAAAAGTCGAATCTCCATCACTCGAGACACATCCAAGAACCAGTACTGCCTGCAGTTGAATTCTGTGACTACTGAGGACACAGCCACATATTACTGT'
p216
sg24
g185
sg25
F2
sg26
I2
sg27
Nsg28
I9
sg29
F1
sg30
(lp217
sg50
(S'simcell_95'
S'simcell_94'
tp218
sbag4
(g5
g6
NtRp219
(dp220
g9
I00
sg10
I2
sg11
g12
((lp221
g14
ag15
ag16
ag17
ag18
ag10
ag19
ag20
atRp222
sg22
S'GGACCTAGCCTCGTGAAATCTTCTCAGACTCTGTCCCTCACCTGTTCTGTCACTGGCGACTCCATCACCAGTGGTTACTGGAACTGGATCCGGAAGTTCCCAGGGAATAAACTTGAGTACATGGGGTACATAAGGTACAGTGGTAGCACTTACTACAATCCATCTCTCAAAAGTCGAATCTCCATCACTCGAGACACATCCAAGAACCAGTACTGCCTGCAGTTGAATTCTGTGACTACTGAGGACACAGCCACATATTACTGT'
p223
sg24
g185
sg25
F1
sg26
I2
sg27
Nsg28
I9
sg29
F1
sg30
(lp224
sg50
(S'simcell_97'
S'simcell_96'
tp225
sbasg50
S'simcell_93'
p226
sbag4
(g5
g6
NtRp227
(dp228
g9
I00
sg10
I10
sg11
g12
((lp229
g14
ag15
ag16
ag17
ag18
ag10
ag19
ag20
atRp230
sg22
S'GGACCTAGCCTCGTGAAATCTTCTCAGACTCTGTCCCTCACCTGTTCTGTCACTGGCGACTCCATCATCAGTGGTTACTGGAACTGGATCCGGAAATTCCCAGGGAATAAACTTGAGTACGTGGGGTACATAAGCTACAGTGGTAGCACTTACTACAATCCATCTCTCAAAAGTCGAATCTCCATCACTCGAGACACATCCAAGAACCAGTACTGCCTGCAGTTGAATTCTGAGACTACTGAGGACACAGCCACATATTACTGT'
p231
sg24
g116
sg25
F3
sg26
I7
sg27
Nsg28
I7
sg29
F1
sg30
(lp232
g4
(g5
g6
NtRp233
(dp234
g9
I00
sg10
I1
sg11
g12
((lp235
g14
ag15
ag16
ag17
ag18
ag10
ag19
ag20
atRp236
sg22
S'GGACCTAGCCTCGTGAAATCTTCTCAGACTCTGTCCCTCACCTGTTCTGTCACTGGCGACTCCATCATCAGTGGTTACTGGAACTGGATCCGGAAATTCCCAGGGAATGAACTTGAGTACGTGGGGTACATAAGCTACAGTGGTAGCACTTACTACAATCCATCTCTCAAAAGTCGAATCTCCATCACTCGAGACACATCCAAGAACCAGTACTGCCTGCAGTTGAATTCTGAGACTACTGAGGACACAGCCACATATTACTGT'
p237
sg24
g227
sg25
F1
sg26
I1
sg27
Nsg28
I10
sg29
F1
sg30
(lp238
sg50
S'simcell_115'
p239
sbag4
(g5
g6
NtRp240
(dp241
g9
I00
sg10
I2
sg11
g12
((lp242
g14
ag15
ag16
ag17
ag18
ag10
ag19
ag20
atRp243
sg22
S'GGACCTAGCCTCGTGAAATCTTCTCAGACTCTGTCCCTCACCTGTTCTGTCACTGGCGACTCCATCATCAGTGGTTACTGGAACTGGATCCGGAAATTCCCAGGGAATAAACTTGAGTACGTGGGGTACATAAGCTACAGTGGTAGCACTTACTACAATCCATCTCTCAAAAGTCGAATCTCCATCACTCGAGTCACATCCAAGAACCAGTACTGCCTGCAGTTGAGTTCTGAGACTACTGAGGACACAGCCACATATTACTGT'
p244
sg24
g227
sg25
F2
sg26
I1
sg27
Nsg28
I9
sg29
F1
sg30
(lp245
g4
(g5
g6
NtRp246
(dp247
g9
I00
sg10
I1
sg11
g12
((lp248
g14
ag15
ag16
ag17
ag18
ag10
ag19
ag20
atRp249
sg22
S'GGACCTAGCCTCGTGAAATCTTCTCAGACTCTGTCCCTCACCTGTTCTGTCACTGGCGACTCCATCATCAGTGGTTACTGGAACTGGATCCGGAAATTCCCAGGGAATGAACTTGAGTACGTGGGGTACATAAGCTACAGTGGTAGCACTTACTACAATCCATCTCTCAAAAGTCGAATCTCCATCACTCGAGTCACATCCAAGAACCAGTACTGCCTGCAGTTGAGTTCTGAGACTACTGAGGACACAGCCACATATTACTGT'
p250
sg24
g240
sg25
F1
sg26
I1
sg27
Nsg28
I10
sg29
F1
sg30
(lp251
sg50
S'simcell_113'
p252
sbasg50
S'simcell_114'
p253
sbasg50
(S'simcell_106'
S'simcell_107'
S'simcell_108'
S'simcell_109'
S'simcell_111'
S'simcell_110'
S'simcell_112'
tp254
sbasg50
(S'simcell_124'
S'simcell_125'
S'simcell_119'
S'simcell_123'
S'simcell_104'
S'simcell_105'
S'simcell_118'
tp255
sbasg50
S'simcell_4'
p256
sbasg50
S'simcell_1'
p257
sbsS'frame'
p258
NsS'params'
p259
NsS'_nparams'
p260
I2
sb.