(i__main__
CollapsedForest
p1
(dp2
S'n_trees'
p3
I1
sS'frame'
p4
NsS'tree'
p5
NsS'_nparams'
p6
I2
sS'params'
p7
(lp8
F0.49504950420842581
aF0.32000000047704735
asS'forest'
p9
((i__main__
CollapsedTree
p10
(dp11
g5
ccopy_reg
_reconstructor
p12
(cete3.coretype.tree
TreeNode
p13
c__builtin__
object
p14
NtRp15
(dp16
S'partition'
p17
I50
sS'features'
p18
c__builtin__
set
p19
((lp20
S'dist'
p21
aS'name'
p22
aS'sequence'
p23
aS'support'
p24
ag17
aS'frequency'
p25
atRp26
sS'sequence'
p27
S'GGACCTAGCCTCGTGAAACCTTCTCAGACTCTGTCCCTCACCTGTTCTGTCACTGGCGACTCCATCACCAGTGGTTACTGGAACTGGATCCGGAAATTCCCAGGGAATAAACTTGAGTACATGGGGTACATAAGCTACAGTGGTAGCACTTACTACAATCCATCTCTCAAAAGTCGAATCTCCATCACTCGAGACACATCCAAGAACCAGTACTACCTGCAGTTGAATTCTGTGACTACTGAGGACACAGCCACATATTACTGT'
p28
sS'_up'
p29
NsS'_dist'
p30
F0
sS'frequency'
p31
I0
sS'_img_style'
p32
NsS'_support'
p33
F1
sS'_children'
p34
(lp35
g12
(g13
g14
NtRp36
(dp37
g17
I50
sg18
g19
((lp38
g21
ag22
ag23
ag24
ag17
ag25
atRp39
sg27
S'GGACCTAGCCTCGTGAAACCTTCTCAGACTCTGTCCCTCACCTGTTCTGTCACTGGCGACTCCATCACCAGTGGTTACTGGAACTGGATCCGGAAATTCCCAGGGAATAAACTTGAGTACATGGGGTACATAAGCTACAGTGGTAGCACTTACTACAATCCATCTCTCAAAAGTCGAATCTCCATCACTCGAGACACATCCAAGAACCAGTACTGCCTGCAGTTGAATTCTGTGACTACTGAGGACACAGCCACATATTACTGT'
p40
sg29
g15
sg30
F1
sg31
I0
sg32
Nsg33
F1
sg34
(lp41
g12
(g13
g14
NtRp42
(dp43
g17
I15
sg18
g19
((lp44
g21
ag22
ag23
ag24
ag17
ag25
atRp45
sg27
S'GGACCTAGCCTCGTGAAACCTTCTCAGACTCTGTCCCTCACCTGTTCTGTCACTGGCGACTCCATCACCAGTGGTTACTGGAACTGGATCCGGAAATTCCCAGGGAATAAACTTGAGTACATGGGGTACATAAGCTACAGTGGTAGCACTTACTACAATCCATCTCTCAAAAGTCGAATCTCCATCACTCGAGACACATCCAAGAACCAGTACTGCCTGCAGTTGAATTCTGTGACTACTGAGGACACAGCCACATACTACTGT'
p46
sg29
g36
sg30
F1
sg31
I2
sg32
Nsg33
F1
sg34
(lp47
g12
(g13
g14
NtRp48
(dp49
g17
I2
sg18
g19
((lp50
g21
ag22
ag23
ag24
ag17
ag25
atRp51
sg27
S'GGACCTAGCCTCGTGAAACCTTCTCAGACTCTGTCCCTCACCTGTTCTGTCACTGGCGACTCCATCACCAGTGGTTACTGGAACTGGATCCGGAAATTCCCAGGGAATAAACTTGAGTACATGGGGTACATAAGCTACAGTGATAGCACTTACTACAATCCATCTCTCAAAAGTCGAATCTCCATCACTCGGGACACATCCAAGAACCAGTACTGCCTGCAGTTGAATTCTGTGACTACTGAGGACACAGCCACATACTACTGT'
p52
sg29
g42
sg30
F2
sg31
I2
sg32
Nsg33
F1
sg34
(lp53
sS'name'
p54
S'seq10'
p55
sbag12
(g13
g14
NtRp56
(dp57
g17
I5
sg18
g19
((lp58
g21
ag22
ag23
ag24
ag17
ag25
atRp59
sg27
S'GGACCTAGCCTCGTGAAACCTTCTCAGACTCTGTCCCTCACCTGTTCTGTCACTGGCGACTCCATCACCAGTGGTTACTGGAACTGGATCCGGAAATTCCCAGGGAATAAACTTGAGTACATGGGGTACATAAGCTACAGTGGGAGCACTTACTACAATCCATCTCTCAAAAGTCGAATCTCCATCACTCGAGACACATCCAAGAACCAGTACTGCCTGCAGTTGAATTCTGTGACTACTGAGGACACAGCCACATACTACTGT'
p60
sg29
g42
sg30
F1
sg31
I0
sg32
Nsg33
F1
sg34
(lp61
g12
(g13
g14
NtRp62
(dp63
g17
I2
sg18
g19
((lp64
g21
ag22
ag23
ag24
ag17
ag25
atRp65
sg27
S'GGACCTAGCCTCGTGAAACCTTCTCAGACTCTGTCCCTCACCTGTTCTGTCACTGGCGACTCCATCACCAGTGGTTACTGGAACTGGATCCGGAAATTCCCAGGGAATAAACTTGAGTACATGGGGTACATAAGCTACAGTGGGAGCACTTACTACAATCCATCTCTCAAAAGTCGAATCCCCATCACTCGAGACACATCCAAGAACCAGTACTGCCTGCAGTTGAATTCTGTGACTACTGAGGACACAGCCACATACTACTGT'
p66
sg29
g56
sg30
F1
sg31
I2
sg32
Nsg33
F1
sg34
(lp67
sg54
S'seq21'
p68
sbag12
(g13
g14
NtRp69
(dp70
g17
I3
sg18
g19
((lp71
g21
ag22
ag23
ag24
ag17
ag25
atRp72
sg27
S'GGACCTAGCCTCGTGAAACCTTCTCAGACTCTGTCCCTCACCTGTTCTGTCACTGGCGACTCCATCACCAGCGGTTACTGGAACTGGATCCGGAAATTCCCAGGGAATAAACTTGAGTACATGGGGTACATAAGCTACAGTGGGAGCACTTACTACAATCCATCTCTCAAAAGTCGAATCTCCATCACTCGAGACACATCCAAGAACCAGTACTGCCTGCAGTTGAATTCTGTGACTACTGAGGACACAGCCACATACTACTGT'
p73
sg29
g56
sg30
F1
sg31
I3
sg32
Nsg33
F1
sg34
(lp74
sg54
S'seq8'
p75
sbasg54
S'10'
p76
sbag12
(g13
g14
NtRp77
(dp78
g17
I6
sg18
g19
((lp79
g21
ag22
ag23
ag24
ag17
ag25
atRp80
sg27
S'GGACCTAGCCTCGTGAAACCTTCTCAGACTCTGTCCCTCACCTGTTCTGTCACTGGCGACTCCATCACCAGTGGTTACTGGAACTGGATCCGGAAATTCCCAGGGAATAAACTTGTGTACATGGGGTACATAAGCTACAGTGGTAGCACTTACTACAATCCATCTCTCAAAAGTCGAATCTCCATCACTCGAGACACATCCAAGAACCAGTACTGCCTGCAGTTGAATTCTGTGACTACTGAGGACACAGCCACATACTACTGT'
p81
sg29
g42
sg30
F1
sg31
I1
sg32
Nsg33
F1
sg34
(lp82
g12
(g13
g14
NtRp83
(dp84
g17
I1
sg18
g19
((lp85
g21
ag22
ag23
ag24
ag17
ag25
atRp86
sg27
S'GGACCTAGCCTCGTGAAACCTTCTCAGACTCTGTCCCTCACCTGTTCTGTCACTGGCGACTCCATCACCAGTGGTTACTGAAACTGGATCCGGAAATTCCCAGGGAATAAACTTGTGTACATGGGGTACATAAGCTACAGTGGTAGCACTTACTACAATCCATCTCTCAAAAGTCGAATCTCCATCACTCGAGACACATCCAAGAACCAGTACTGCCTGCAGTTGAATTCTGTGACTACTGAGGACACAGCCACATACTACTGT'
p87
sg29
g77
sg30
F1
sg31
I1
sg32
Nsg33
F1
sg34
(lp88
sg54
S'seq18'
p89
sbag12
(g13
g14
NtRp90
(dp91
g17
I1
sg18
g19
((lp92
g21
ag22
ag23
ag24
ag17
ag25
atRp93
sg27
S'GGACCTAGCCTCGTGAAACCTTCTCAGACTCTGTCCCTCACCTGTTCTGTCACTGGCGACTCCATCACCAGTGGTTACTGGAACTGGATCCGGAAATTCCCAGGGAATAAACTTGTGTACATGGGGTACATAAGCTACAGTGGTAGCACTTACTACAATCCATCTCTCAAAAGTCGAATCTCCATCACTCGAGACACATCCAAGAACCAGTACTGCCTGCAGTTGAATTCTGTGACTACTGAGGACACAGCCTCATACTACTGT'
p94
sg29
g77
sg30
F1
sg31
I1
sg32
Nsg33
F1
sg34
(lp95
sg54
S'seq2'
p96
sbag12
(g13
g14
NtRp97
(dp98
g17
I1
sg18
g19
((lp99
g21
ag22
ag23
ag24
ag17
ag25
atRp100
sg27
S'GGACCTAGCCTCGTGAAACCTTCTCAGACTCTGTCCCTCACCTGTTCTGTCACTGGCGACTCCATCACCAGTGGTTACTGGAACTGGATCCGGAAATTCCCAGGGAATAAACTTGTGTACATGGGGTACATAAGCTACAGTGGTAGCACTTACTACAATCCATCTCTCAAAAGTCGAATCTCCATCACTCGAGACACATCCAAGAACCAGTACTGCCTGCAGTTGAATTCTGTGACTACTGATGACACAGCCACATACTACTGT'
p101
sg29
g77
sg30
F1
sg31
I1
sg32
Nsg33
F1
sg34
(lp102
sg54
S'seq3'
p103
sbag12
(g13
g14
NtRp104
(dp105
g17
I1
sg18
g19
((lp106
g21
ag22
ag23
ag24
ag17
ag25
atRp107
sg27
S'GGACCTAGCCTCGTGAAACCTTCTCAGACTCTGTCCCTCACCTGTTCTGTCACTGGCGACTCCATCACCAGTGGTTACTGGAACTGGATCCGGAAATTCCCAGGGAATAAACTTGTGTACATGGGGTACATAAGCTACAGTGGTAGCACTTACTACAATCCATCTCTCAAAAGTCGATTCTCCATCACTCGAGACACATCCAAGAACCAGTACTGCCTGCAGTTGAATTCTGTGACTACTGAGGACACAGCCACATACTACTGT'
p108
sg29
g77
sg30
F1
sg31
I1
sg32
Nsg33
F1
sg34
(lp109
sg54
S'seq22'
p110
sbag12
(g13
g14
NtRp111
(dp112
g17
I1
sg18
g19
((lp113
g21
ag22
ag23
ag24
ag17
ag25
atRp114
sg27
S'GGACCTAGCCTCGTGAAACCTTCTCAGACTCTGTCCCTCACCTGTTCTGTCACTGGCGACTCCATCACCAGTGGTTACTGGAACTGGGTCCGGAAATTCCCAGGGAATAAACTTGTGTACATGGGGTACATAAGCTACAGTGGTAGCACTTACTACAATCCATCTCTCAAAAGTCGAATCTCCATCACTCGAGACACATCCAAGAACCAGTACTGCCTGCAGTTGAATTCTGTGACTACTGAGGACACAGCCACATACTACTGT'
p115
sg29
g77
sg30
F1
sg31
I1
sg32
Nsg33
F1
sg34
(lp116
sg54
S'seq14'
p117
sbasg54
S'seq20'
p118
sbasg54
S'seq7'
p119
sbag12
(g13
g14
NtRp120
(dp121
g17
I35
sg18
g19
((lp122
g21
ag22
ag23
ag24
ag17
ag25
atRp123
sg27
S'GGACCTAGCCTCGTGAAATCTTCTCAGACTCTGTCCCTCACCTGTTCTGTCACTGGCGACTCCATCACCAGTGGTTACTGGAACTGGATCCGGAAATTCCCAGGGAATAAACTTGAGTACATGGGGTACATAAGCTACAGTGGTAGCACTTACTACAATCCATCTCTCAAAAGTCGAATCTCCATCACTCGAGACACATCCAAGAACCAGTACTGCCTGCAGTTGAATTCTGTGACTACTGAGGACACAGCCACATATTACTGT'
p124
sg29
g36
sg30
F1
sg31
I7
sg32
Nsg33
F1
sg34
(lp125
g12
(g13
g14
NtRp126
(dp127
g17
I1
sg18
g19
((lp128
g21
ag22
ag23
ag24
ag17
ag25
atRp129
sg27
S'GGACCTAGCCTCGTGAAATCTTCTCAGACTCTGTCCCTCACCTGTTCTGTCACTGGCGACTCCATCACCAGTGGTTACTGGAACTGGATCCGGAAATTCCCAGGGAATAAACTTGAGTACATGGGGTACATAAGCTACAGTGGTAGCACTAACTACAATCCATCTCTCAAAAGTCGAATCTCCATCACTCGAGACACATCCAAGAACCAGTACTGCCTGCAGTTGAATTCTGTGACTACTGAGGACACAGCCACATATTACTGT'
p130
sg29
g120
sg30
F1
sg31
I1
sg32
Nsg33
F1
sg34
(lp131
sg54
S'seq13'
p132
sbag12
(g13
g14
NtRp133
(dp134
g17
I1
sg18
g19
((lp135
g21
ag22
ag23
ag24
ag17
ag25
atRp136
sg27
S'GGACCTAGCCTCGTGAAATCTTCTCAGACTCTGTCCCTCACCTGTTCTGTCACTGGCGACTCCATCACCAGTGGTTACTGGAACTGGATCCGGGAATTCCCAGGGAATAAACTTGAGTACATGGGGTACATAAGCTACAGTGGTAGCACTTACTACAATCCATCTCTCAAAAGTCGAATCTCCATCACTCGAGACACATCCAAGAACCAGTACTGCCTGCAGTTGAATTCTGTGACTACTGAGGACACAGCCACATATTACTGT'
p137
sg29
g120
sg30
F1
sg31
I1
sg32
Nsg33
F1
sg34
(lp138
sg54
S'seq26'
p139
sbag12
(g13
g14
NtRp140
(dp141
g17
I1
sg18
g19
((lp142
g21
ag22
ag23
ag24
ag17
ag25
atRp143
sg27
S'GGACCTAGCCTCGTGAAATCTTCTCAGACTCTGTCCCTCACCTGTTCTGTCACTGGCGACTCCATCACCAGTGGTTACTGGAACTGGGTCCGGAAATTCCCAGGGAATAAACTTGAGTACATGGGGTACATAAGCTACAGTGGTAGCACTTACTACAATCCATCTCTCAAAAGTCGAATCTCCATCACTCGAGACACATCCAAGAACCAGTACTGCCTGCAGTTGAATTCTGTGACTACTGAGGACACAGCCACATATTACTGT'
p144
sg29
g120
sg30
F1
sg31
I1
sg32
Nsg33
F1
sg34
(lp145
sg54
S'seq23'
p146
sbag12
(g13
g14
NtRp147
(dp148
g17
I1
sg18
g19
((lp149
g21
ag22
ag23
ag24
ag17
ag25
atRp150
sg27
S'GGACCTAGCCTCGTGAGATCTTCTCAGACTCTGTCCCTCACCTGTTCTGTCACTGGCGACTCCATCACCAGTGGTTACTGGAACTGGATCCGGAAATTCCCAGGGAATAAACTTGAGTACATGGGGTACATAAGCTACAGTGGTAGCACTTACTACAATCCATCTCTCAAAAGTCGAATCTCCATCACTCGAGACACATCCAAGAACCAGTACTGCCTGCAGTTGAATTCTGTGACTACTGAGGACACAGCCACATATTACTGT'
p151
sg29
g120
sg30
F1
sg31
I1
sg32
Nsg33
F1
sg34
(lp152
sg54
S'seq25'
p153
sbag12
(g13
g14
NtRp154
(dp155
g17
I2
sg18
g19
((lp156
g21
ag22
ag23
ag24
ag17
ag25
atRp157
sg27
S'GGACCTAGCCTCGTGAAATCTTCTCAGACTCTGTCCCTCACCTGTTCTGTCACTGGCGACTCCATCACCAGTGGTTACTGGAACTGGATCCGGAAATTCCCAGGGAATAAACTTGAGTACATGGGGTACATAAGCTACAGTGGTAGCACTTACTACAATCCATCTCTCAAAAGTCGAATCTCCATCACTCGAGACACATCCAAGAACCAGTACTGCCTGCAGTTGAACTCTGTGACTACTGAGGACACAGCCACATATTACTGT'
p158
sg29
g120
sg30
F1
sg31
I2
sg32
Nsg33
F1
sg34
(lp159
sg54
S'seq11'
p160
sbag12
(g13
g14
NtRp161
(dp162
g17
I2
sg18
g19
((lp163
g21
ag22
ag23
ag24
ag17
ag25
atRp164
sg27
S'GGACCTAGCCTCGTGAAATCTTCTCAGACTCTGTCCCTCACCTGTTCTGTCACTGGCGACTCCATCACCAGTGGTTACTGGAACTGGATCCGGAAATTCCCAGGGAATAAACTTGAGTACATGGGGTACATAAGCTACAGTGGTAGCACTTACTACAATCCATCTCTCAAAAGTCGAATCTCCATCACTCGAGACACATCCAAGAACCAGTACTGCCTGCAGTTGAATTCTGTGACTACTGAGGACACAGCCACATATTCCTGT'
p165
sg29
g120
sg30
F1
sg31
I2
sg32
Nsg33
F1
sg34
(lp166
sg54
S'seq28'
p167
sbag12
(g13
g14
NtRp168
(dp169
g17
I3
sg18
g19
((lp170
g21
ag22
ag23
ag24
ag17
ag25
atRp171
sg27
S'GGACCTAGCCTCGTGAAATCTTCTCAGACTCTGTCCCTCACCTGTTCTGTCACTGGCGACTCCATCACCAGTGGTTACTGGAACTGGATCCGGAAATTCCCAGGGAATAAACTTGAGTACATGGGGTACATAAGCTACAGTGGTAGCACTTAGTACAATCCATCTCTCAAAAGTCGAATCTCCATCACTCGAGACACATCCAAGAACCAGTACTGCCTGCAGTTGAATTCTGTGACTACTGAGGACACAGCCACATATTACTGT'
p172
sg29
g120
sg30
F1
sg31
I1
sg32
Nsg33
F1
sg34
(lp173
g12
(g13
g14
NtRp174
(dp175
g17
I1
sg18
g19
((lp176
g21
ag22
ag23
ag24
ag17
ag25
atRp177
sg27
S'GGACCTAGCCTCGTGAAATCTTCTCAGACTCTGTCCCTCACCTGTTCTGTCACTGGCGACTCCATCACCAGTCGTTACTGGAACTGGATCCGGAAATTCCCAGGGAATAAACTTGAGTACATGGGGTACATAAGCTACAGTGGTAGCACTTAGTACAATCCATCTCTCAAAAGTCGAATCTCCATCACTCGAGACACATCCAAGAACCAGTACTGCCTGCAGTTGAATTCTGTGACTACTGAGGACACAGCCACATATTACTGT'
p178
sg29
g168
sg30
F1
sg31
I1
sg32
Nsg33
F1
sg34
(lp179
sg54
S'seq16'
p180
sbag12
(g13
g14
NtRp181
(dp182
g17
I1
sg18
g19
((lp183
g21
ag22
ag23
ag24
ag17
ag25
atRp184
sg27
S'GGACCTAGCCTCGTGAAATCTTCTCAGACTCTGTCCCTCACCTGTTCTGTCACTGGCGACTCCATCACCAGTGGTTACTGGAACTGGATCCGGAAATTCCCAGGGAATAAACTTGAGTACATGGGGTACATAAGCTACAGTGGTAGCACTTAGTACAATCCATCTCTCAAAAGTCGAATCTCCATCACTCGAGACACATCCAAGAACCAGTACTGCCTGCAGTTGAATTCTGTGACTACTGAGGACACAGCCACATATTATTGT'
p185
sg29
g168
sg30
F1
sg31
I1
sg32
Nsg33
F1
sg34
(lp186
sg54
S'seq5'
p187
sbasg54
S'seq29'
p188
sbag12
(g13
g14
NtRp189
(dp190
g17
I7
sg18
g19
((lp191
g21
ag22
ag23
ag24
ag17
ag25
atRp192
sg27
S'GGACCTAGCCTCGTGAAATCTTCTCAGACTCTGTCCCTCACCTGTTCTGTCACTGGCGACTCCATCACCAGTGGTTACTGGAACTGGATCCGGAAATTCCCAGGGAATAAACTTGAGTACATGGGGTACATAAGGTACAGTGGTAGCACTTACTACAATCCATCTCTCAAAAGTCGAATCTCCATCACTCGAGACACATCCAAGAACCAGTACTGCCTGCAGTTGAATTCTGTGACTACTGAGGACACAGCCACATATTACTGT'
p193
sg29
g120
sg30
F1
sg31
I1
sg32
Nsg33
F1
sg34
(lp194
g12
(g13
g14
NtRp195
(dp196
g17
I2
sg18
g19
((lp197
g21
ag22
ag23
ag24
ag17
ag25
atRp198
sg27
S'GGACCCAGCCTCGTGAAATCTTCTCAGACTCTGTCCCTCACCTGTTCTGTCACTGGCGACTCCATCACCAGTGGTTACTGGAACTGGATCCGGAAATTCCCAGGGAATAAACTTGAGTACATGGGGTACATAAGGTACAGTGGTAGGACTTACTACAATCCATCTCTCAAAAGTCGAATCTCCATCACTCGAGACACATCCAAGAACCAGTACTGCCTGCAGTTGAATTCTGTGACTACTGAGGACACAGCCACATATTACTGT'
p199
sg29
g189
sg30
F2
sg31
I0
sg32
Nsg33
F1
sg34
(lp200
g12
(g13
g14
NtRp201
(dp202
g17
I1
sg18
g19
((lp203
g21
ag22
ag23
ag24
ag17
ag25
atRp204
sg27
S'GGACCCAGCCTCGTGAAATCTTCTCAGACTCTGTCCCTCACCTGTTCTGTCACTGGCGACTCCATCACCAGTGGTTACTGGAACTGGATCCGGAAATTCCCAGGGAATAAACTTGAGTACATGGGGTACATAAGGTACAGTGGTAGGACTTACTACAATCCATCTCTCAAAAGTCGAATCTCCATCACTCGAGACACATCCAAGAACCAGTACTGCCTGCAGTTGAATTCTGTGACTACTGAGGACACAGCCACATATTATTGT'
p205
sg29
g195
sg30
F1
sg31
I1
sg32
Nsg33
F1
sg34
(lp206
sg54
S'seq19'
p207
sbag12
(g13
g14
NtRp208
(dp209
g17
I1
sg18
g19
((lp210
g21
ag22
ag23
ag24
ag17
ag25
atRp211
sg27
S'GGACCCAGCCTCGTGAAATCTTCTCAGACTTTGTCCCTCACCTGTTCTGTCACTGGCGACTCCATCACCAGTGGTTACTGGAACTGGATCCGGAAATTCCCAGGGAATAAACTTGAGTACATGGGGTACATAAGGTACAGTGGTAGGACTTACTACAATCCATCTCTCAAAAGTCGAATCTCCATCACTCGAGACACATCCAAGAACCAGTACTGCCTGCAGTTGAATTCTGTGACTACTGAGGACACAGCCACATATTACTGT'
p212
sg29
g195
sg30
F1
sg31
I1
sg32
Nsg33
F1
sg34
(lp213
sg54
S'seq17'
p214
sbasg54
S'9'
sbag12
(g13
g14
NtRp215
(dp216
g17
I2
sg18
g19
((lp217
g21
ag22
ag23
ag24
ag17
ag25
atRp218
sg27
S'GGACCTAGCCTCGTGAAATCTTCTCAGACTCTGTCCCTCACCTGTTCTGTCACTGGCGACTCCATCACCAGAGGTTACTGGAACTGGATCCGGAAATTCCCAGGGCATAAACTTGAGTACATGGGGTACATAAGGTACAGTGGTAGCACTTACTACAATCCATCTCTCAAAAGTCGAATCTCCATCACTCGAGACACATCCAAGAACCAGTACTGCCTGCAGTTGAATTCTGTGACTACTGAGGACACAGCCACATATTACTGT'
p219
sg29
g189
sg30
F2
sg31
I2
sg32
Nsg33
F1
sg34
(lp220
sg54
S'seq1'
p221
sbag12
(g13
g14
NtRp222
(dp223
g17
I2
sg18
g19
((lp224
g21
ag22
ag23
ag24
ag17
ag25
atRp225
sg27
S'GGACCTAGCCTCGTGAAATCTTCTCAGACTCTGTCCCTCACCTGTTCTGTCACTGGCGACTCCATCACCAGTGGTTACTGGAACTGGATCCGGAAGTTCCCAGGGAATAAACTTGAGTACATGGGGTACATAAGGTACAGTGGTAGCACTTACTACAATCCATCTCTCAAAAGTCGAATCTCCATCACTCGAGACACATCCAAGAACCAGTACTGCCTGCAGTTGAATTCTGTGACTACTGAGGACACAGCCACATATTACTGT'
p226
sg29
g189
sg30
F1
sg31
I2
sg32
Nsg33
F1
sg34
(lp227
sg54
S'seq9'
p228
sbasg54
S'seq27'
p229
sbag12
(g13
g14
NtRp230
(dp231
g17
I10
sg18
g19
((lp232
g21
ag22
ag23
ag24
ag17
ag25
atRp233
sg27
S'GGACCTAGCCTCGTGAAATCTTCTCAGACTCTGTCCCTCACCTGTTCTGTCACTGGCGACTCCATCATCAGTGGTTACTGGAACTGGATCCGGAAATTCCCAGGGAATAAACTTGAGTACGTGGGGTACATAAGCTACAGTGGTAGCACTTACTACAATCCATCTCTCAAAAGTCGAATCTCCATCACTCGAGACACATCCAAGAACCAGTACTGCCTGCAGTTGAATTCTGAGACTACTGAGGACACAGCCACATATTACTGT'
p234
sg29
g120
sg30
F3
sg31
I7
sg32
Nsg33
F1
sg34
(lp235
g12
(g13
g14
NtRp236
(dp237
g17
I1
sg18
g19
((lp238
g21
ag22
ag23
ag24
ag17
ag25
atRp239
sg27
S'GGACCTAGCCTCGTGAAATCTTCTCAGACTCTGTCCCTCACCTGTTCTGTCACTGGCGACTCCATCATCAGTGGTTACTGGAACTGGATCCGGAAATTCCCAGGGAATGAACTTGAGTACGTGGGGTACATAAGCTACAGTGGTAGCACTTACTACAATCCATCTCTCAAAAGTCGAATCTCCATCACTCGAGACACATCCAAGAACCAGTACTGCCTGCAGTTGAATTCTGAGACTACTGAGGACACAGCCACATATTACTGT'
p240
sg29
g230
sg30
F1
sg31
I1
sg32
Nsg33
F1
sg34
(lp241
sg54
S'seq6'
p242
sbag12
(g13
g14
NtRp243
(dp244
g17
I2
sg18
g19
((lp245
g21
ag22
ag23
ag24
ag17
ag25
atRp246
sg27
S'GGACCTAGCCTCGTGAAATCTTCTCAGACTCTGTCCCTCACCTGTTCTGTCACTGGCGACTCCATCATCAGTGGTTACTGGAACTGGATCCGGAAATTCCCAGGGAATAAACTTGAGTACGTGGGGTACATAAGCTACAGTGGTAGCACTTACTACAATCCATCTCTCAAAAGTCGAATCTCCATCACTCGAGTCACATCCAAGAACCAGTACTGCCTGCAGTTGAGTTCTGAGACTACTGAGGACACAGCCACATATTACTGT'
p247
sg29
g230
sg30
F2
sg31
I1
sg32
Nsg33
F1
sg34
(lp248
g12
(g13
g14
NtRp249
(dp250
g17
I1
sg18
g19
((lp251
g21
ag22
ag23
ag24
ag17
ag25
atRp252
sg27
S'GGACCTAGCCTCGTGAAATCTTCTCAGACTCTGTCCCTCACCTGTTCTGTCACTGGCGACTCCATCATCAGTGGTTACTGGAACTGGATCCGGAAATTCCCAGGGAATGAACTTGAGTACGTGGGGTACATAAGCTACAGTGGTAGCACTTACTACAATCCATCTCTCAAAAGTCGAATCTCCATCACTCGAGTCACATCCAAGAACCAGTACTGCCTGCAGTTGAGTTCTGAGACTACTGAGGACACAGCCACATATTACTGT'
p253
sg29
g243
sg30
F1
sg31
I1
sg32
Nsg33
F1
sg34
(lp254
sg54
S'seq4'
p255
sbasg54
S'seq12'
p256
sbasg54
S'seq24'
p257
sbasg54
S'seq15'
p258
sbasg54
S'1'
sbasg54
S'naive'
p259
sbsg4
Nsg7
Nsg6
I2
sbtp260
sb.