(i__main__
CollapsedForest
p1
(dp2
S'n_trees'
p3
I1
sS'frame'
p4
NsS'tree'
p5
NsS'_nparams'
p6
I2
sS'params'
p7
(lp8
F0.49494947436005254
aF0.22448979617239459
asS'forest'
p9
((i__main__
CollapsedTree
p10
(dp11
g5
ccopy_reg
_reconstructor
p12
(cete3.coretype.tree
TreeNode
p13
c__builtin__
object
p14
NtRp15
(dp16
S'partition'
p17
I50
sS'features'
p18
c__builtin__
set
p19
((lp20
S'dist'
p21
aS'name'
p22
aS'sequence'
p23
aS'support'
p24
ag17
aS'frequency'
p25
atRp26
sS'sequence'
p27
S'GGACCTAGCCTCGTGAAACCTTCTCAGACTCTGTCCCTCACCTGTTCTGTCACTGGCGACTCCATCACCAGTGGTTACTGGAACTGGATCCGGAAATTCCCAGGGAATAAACTTGAGTACATGGGGTACATAAGCTACAGTGGTAGCACTTACTACAATCCATCTCTCAAAAGTCGAATCTCCATCACTCGAGACACATCCAAGAACCAGTACTACCTGCAGTTGAATTCTGTGACTACTGAGGACACAGCCACATATTACTGT'
p28
sS'_up'
p29
NsS'_dist'
p30
F0
sS'frequency'
p31
I5
sS'_img_style'
p32
NsS'_support'
p33
F1
sS'_children'
p34
(lp35
g12
(g13
g14
NtRp36
(dp37
g17
I1
sg18
g19
((lp38
g21
ag22
ag23
ag24
ag17
ag25
atRp39
sg27
S'GGACCTAGCCTCGTGAAACCTTCTCAGACTCTGTCCCTCACCTGTTCTGTCACTGGCGACTCCATCACCAGTGGTTACTGGAACTGGATCCGGAAATTCCCAGGGAATAAACTTGAGTACATGGGGTACATAAGCTACAGTGGTAGCACTTACTACAATCCATCTCTCAAAAGTCGAATCTCCATCACTCGAGACACATCCAAGAACCAGTATTACCTGCAGTTGAATTCTGTGACTACTGAGGACACAGCCACATATTACTGT'
p40
sg29
g15
sg30
F1
sg31
I1
sg32
Nsg33
F1
sg34
(lp41
sS'name'
p42
S'seq3'
p43
sbag12
(g13
g14
NtRp44
(dp45
g17
I1
sg18
g19
((lp46
g21
ag22
ag23
ag24
ag17
ag25
atRp47
sg27
S'GGACCTAGCCTCGTGAAACCTTCTCAGACTCTGTCCCTCACCTGTTCTGTCACTGGCGACTCCATCACCAGTGGTTACTGGAACTGGATCCGGAAATTCCCAGGGAATAAACTTGAGTACATGGGGTACATAAGCTACAGTGGTAGCACTTACTACAATCCATCTCTCAGAAGTCGAATCTCCATCACTCGAGACACATCCAAGAACCAGTACTACCTGCAGTTGAATTCTGTGACTACTGAGGACACAGCCACATATTACTGT'
p48
sg29
g15
sg30
F1
sg31
I1
sg32
Nsg33
F1
sg34
(lp49
sg42
S'seq21'
p50
sbag12
(g13
g14
NtRp51
(dp52
g17
I1
sg18
g19
((lp53
g21
ag22
ag23
ag24
ag17
ag25
atRp54
sg27
S'GGACCTAGCCTCGTGAAACCTTCTCAGACTCTGTCCCTCACCTGTTCTGTCACTGGCGACTCCATCACCAGTGGTTACTGGAACTGGATCCGGAAATTCCCAGGGAATAAACTTGAGTACATGGGGTACATAAGCTACAGTGGTAGCACTTACTGCAATCCATCTCTCAAAAGTCGAATCTCCATCACTCGAGACACATCCAAGAACCAGTACTACCTGCAGTTGAATTCTGTGACTACTGAGGACACAGCCACATATTACTGT'
p55
sg29
g15
sg30
F1
sg31
I1
sg32
Nsg33
F1
sg34
(lp56
sg42
S'seq5'
p57
sbag12
(g13
g14
NtRp58
(dp59
g17
I2
sg18
g19
((lp60
g21
ag22
ag23
ag24
ag17
ag25
atRp61
sg27
S'GGACCTAGCCTCGTGAAACCTTCTCAGACTCTGTCCCTCACCTGTTCTGTCACTGGCGACTCCATCACCAGTGGTTACTGGAACTGGATCCGGAAATTCCCAGGGAATAAACTTGAGTACATGGGGTACATAAGCTACAGTGATAGCACTTACTACAATCCATCTCTCAAAAGTCGAATCTCCATCACTCGAGACACATCCAAGAACCAGTACTACCTGCAGTTGAATTCTGTGACTACTGAGGACACAGCCACATATTACTGT'
p62
sg29
g15
sg30
F1
sg31
I2
sg32
Nsg33
F1
sg34
(lp63
sg42
S'seq1'
p64
sbag12
(g13
g14
NtRp65
(dp66
g17
I2
sg18
g19
((lp67
g21
ag22
ag23
ag24
ag17
ag25
atRp68
sg27
S'GGACCTAGCCTCGTGAAACCTTCTCAGACTCTGTCCCTCACCTGTTCTGTCACTGGCGACTCCATCACCAGTGGTTACTGGAACTGGATCCGGAAATTCCCAGGGAATAAACTTGAGTACATGGGGTACATAAGCTACAGTGGTAGCACTTACTACAATCCATCTCTCAAAAGTCGAATCTCCATCACTCGAGACACATCCAAGAACCAGTACTACCTGCAGTTGAATTCTTTGACTACTGAGGACACAGCCACATATTACTGT'
p69
sg29
g15
sg30
F1
sg31
I2
sg32
Nsg33
F1
sg34
(lp70
sg42
S'seq10'
p71
sbag12
(g13
g14
NtRp72
(dp73
g17
I4
sg18
g19
((lp74
g21
ag22
ag23
ag24
ag17
ag25
atRp75
sg27
S'GGACCTAGCCTCGTGAAACCTTCTCAGACTCTGTCCCTCACCTGTTCTGTCACTGGCGACTCCATCACCAGTGGTTACTGGAACTGGATCCGGAAATTCCCAGGGAATAAACTTGAGTACATGGGGTACATAAGCTACAGTGGTAGCACTTACTACAATCCATCTCTCAAAAGTCGAATCTCCATCACTCGAGACACATCCAAGAATCAGTACTACCTGCAGTTGAATTCTGTGACTACTGAGGACACAGCCACATATTACTGT'
p76
sg29
g15
sg30
F1
sg31
I1
sg32
Nsg33
F1
sg34
(lp77
g12
(g13
g14
NtRp78
(dp79
g17
I1
sg18
g19
((lp80
g21
ag22
ag23
ag24
ag17
ag25
atRp81
sg27
S'GGACCTAGCCTCGTGAAACCTTCTCAGACTCTGTCCCTCACCTGTTCTGTCACTGGCGACTCCATCACCAGTGGTTACTGGAACTGGATCCGGAAATTCCCAGGGAATAAACTTGAGTACATGGGGTACAGAAGCTACAGTGGTAGCACTTACTACAATCCATCTCTCAAAAGTCGAATCTCCATCACTCGAGACACATCCAAGAATCAGTACTACCTGCAGTTGAATTCTGTGACTACTGAGGACACAGCCACATATTACTGT'
p82
sg29
g72
sg30
F1
sg31
I1
sg32
Nsg33
F1
sg34
(lp83
sg42
S'seq2'
p84
sbag12
(g13
g14
NtRp85
(dp86
g17
I1
sg18
g19
((lp87
g21
ag22
ag23
ag24
ag17
ag25
atRp88
sg27
S'GGACCTAGCCTCGTGAAACCTTCTCAGACTCTGTCCCTCACCTGTTCTGTCACTGGCGACTCCATCACCAGTGGTTACTGGAACTGGATCCGGAAATTCCCAGGGAATAAACTTGAGTACATGGGGTACATAAGCTACAGTGGTAGCACTTACTACAATCCATCTCTCAAAAGTCGAATCTCCATCACTCGAGACACATCCAAGAATCAGTACTACCTGCAGTTGAATTCTGTGACTACTGAGGACACAGCCACATTTTACTGT'
p89
sg29
g72
sg30
F1
sg31
I1
sg32
Nsg33
F1
sg34
(lp90
sg42
S'seq16'
p91
sbag12
(g13
g14
NtRp92
(dp93
g17
I1
sg18
g19
((lp94
g21
ag22
ag23
ag24
ag17
ag25
atRp95
sg27
S'GGACCTAGCCTCGTGAAACCTTCTCAGACTCTGTCCCTCACCTGTTCTGTCACTGGCGACTCCATCACCAGTGGTTACTGGAACTGGATCCGGAAATTCCCAGGGAATAAACTTGAGTACATGGGGTACATAAGCTACAGTGGTAGCACTTACTACAATCCATCTCTCAAAAGTCGAATCTCCATCACTCGAGACACATCCAAGAATCAGTACTACTTGCAGTTGAATTCTGTGACTACTGAGGACACAGCCACATATTACTGT'
p96
sg29
g72
sg30
F1
sg31
I1
sg32
Nsg33
F1
sg34
(lp97
sg42
S'seq20'
p98
sbasg42
S'seq15'
p99
sbag12
(g13
g14
NtRp100
(dp101
g17
I6
sg18
g19
((lp102
g21
ag22
ag23
ag24
ag17
ag25
atRp103
sg27
S'GGACCTAGCCTCGTGAAACCTTCTCAGACTCTGTCCCTCACCTGTTCTGTCACTGGCGACTCCATCACCAGTGGTTACTGGAACTGGATCCGGAAATTCCCAGGGAATAAACTTGAGTACATGGGGTACATAAGCTACAGTGGTAGCACTTACTACAATCCATCTCTCAAAAGTCGAATCTCCATCACTCGAGACACATCCAAGAACCAGTACTACCTGCAGTTGAAATCTGTGACTACTGAGGACACAGCCACATATTACTGT'
p104
sg29
g15
sg30
F1
sg31
I5
sg32
Nsg33
F1
sg34
(lp105
g12
(g13
g14
NtRp106
(dp107
g17
I1
sg18
g19
((lp108
g21
ag22
ag23
ag24
ag17
ag25
atRp109
sg27
S'GGACCTAGCCTCGTGAAACCTTCTCAGACTCTGTCCCTCACCTGTTCTGTCACTGGCGACTCCATCACCAGTGGTTACTGGAACTGGATCCGGAACTTCCCAGGGAATAAACTTGAGTACATGGGGTACATAAGCTACAGTGGTAGCACTTACTACAATCCATCTCTCAAAAGTCGAATCTCCATCACTCGAGACACATCCAAGAACCAGTACTACCTGCAGTTGAAATCTGTGACTACTGAGGACACAGCCACATATTACTGT'
p110
sg29
g100
sg30
F1
sg31
I1
sg32
Nsg33
F1
sg34
(lp111
sg42
S'seq19'
p112
sbasg42
S'seq18'
p113
sbag12
(g13
g14
NtRp114
(dp115
g17
I14
sg18
g19
((lp116
g21
ag22
ag23
ag24
ag17
ag25
atRp117
sg27
S'GGACCTAGCCTCGTGAAACCTTCTCAGACTCTGTCCCTCACCTGTTCTGTCACTGGCGACTCCATCACCAGTGGTTACGGGAACTGGATCCGGAAATTCCCAGGGAATAAACTTGAGTACATGGGGTACATAAGCTACAGTGGTAGCACTTACTACAATCCATCTCTCAAAAGTCGAATCTCCATCACTCGAGACACATCCAAGAACCAGTACTACCTGCAGTTGAATTCTGTGACTACTGAGGACACAGCCACATATTACTGT'
p118
sg29
g15
sg30
F1
sg31
I8
sg32
Nsg33
F1
sg34
(lp119
g12
(g13
g14
NtRp120
(dp121
g17
I1
sg18
g19
((lp122
g21
ag22
ag23
ag24
ag17
ag25
atRp123
sg27
S'GGACCTAGCCTCGTGAAACCTTCTCAGACTCTGTCCCTCACCTGTTCTGTCACTGGCGCCTCCATCACCAGTGGTTACGGGAACTGGATCCGGAAATTCCCAGGGAATAAACTTGAGTACATGGGGTACATAAGCTACAGTGGTAGCACTTACTACAATCCATCTCTCAAAAGTCGAATCTCCATCACTCGAGACACATCCAAGAACCAGTACTACCTGCAGTTGAATTCTGTGACTACTGAGGACACAGCCACATATTACTGT'
p124
sg29
g114
sg30
F1
sg31
I1
sg32
Nsg33
F1
sg34
(lp125
sg42
S'seq6'
p126
sbag12
(g13
g14
NtRp127
(dp128
g17
I1
sg18
g19
((lp129
g21
ag22
ag23
ag24
ag17
ag25
atRp130
sg27
S'GGACCTAGCCTCGTGAAACCTTCTCAGACTCTGTCCGTCACCTGTTCTGTCACTGGCGACTCCATCACCAGTGGTTACGGGAACTGGATCCGGAAATTCCCAGGGAATAAACTTGAGTACATGGGGTACATAAGCTCCAGTGGTAGCACTTACTACAATCCATCTCTCAAAAGTCGAATCTCCATCACTCGAGACACATCCAAGAACCAGTACTACCTGCAGTTGAATTCTGTGACTACTGAGGACACAGCCACATATTACTGT'
p131
sg29
g114
sg30
F2
sg31
I1
sg32
Nsg33
F1
sg34
(lp132
sg42
S'seq13'
p133
sbag12
(g13
g14
NtRp134
(dp135
g17
I2
sg18
g19
((lp136
g21
ag22
ag23
ag24
ag17
ag25
atRp137
sg27
S'GGACCCAGCCTCGTGAAACCTTCTCAGACTCTGTCCCTCACCTGTTCTGTCACTGGCGACTCCATCACCAGTGGTTACGGGAACTGGATCCGGAAATTCCCAGGGAATAAACTTGAGTACATGGGGTACATAAGCTACAGTGGTAGCACTTACTACAATCCATCTCTCAAAAGTCGAATCTCCATCACTCGAGACACATCCAAGAACCAGTACTACCTGCAGTTGAATTCTGTGACTACTGAGGACACAGCCACATATTACTGT'
p138
sg29
g114
sg30
F1
sg31
I2
sg32
Nsg33
F1
sg34
(lp139
sg42
S'seq7'
p140
sbag12
(g13
g14
NtRp141
(dp142
g17
I2
sg18
g19
((lp143
g21
ag22
ag23
ag24
ag17
ag25
atRp144
sg27
S'GGACCTAGCCTCGTGAAACCTTCTCAGACTCTGTCCCTCACCTGTTCTGTCACTGGCGACTCCATCACCAGTGGGTACGGGAACTGGATCCGGAAATTCCCAGGGAATAAACTTGAGTACATGGGGTACATAAGCTACAGTGGTAGCACTTACTACAATCCATCTCTCAAAAGTCGAATCTCCATCACTCGAGACACATCCAAGAACCAGTACTACCTGCAGTTGAATTCTGTGACTACTGAGGACACAGCCACATATTACTGT'
p145
sg29
g114
sg30
F1
sg31
I2
sg32
Nsg33
F1
sg34
(lp146
sg42
S'seq12'
p147
sbasg42
S'seq11'
p148
sbag12
(g13
g14
NtRp149
(dp150
g17
I14
sg18
g19
((lp151
g21
ag22
ag23
ag24
ag17
ag25
atRp152
sg27
S'GGACCTAGCCTCGTGAAACCTTCTCAGACTCTGTCCCTCACCTGTTCTGTCACTGGCGACTCCATCACCAGTGGTTACTGGCACTGGATCCGGAAATTCCCAGGGAATAAACTTGAGTACATGGGGTACATAAGCTACAGTGGTAGCACTTACTACAATCCATCTCTCAAAAGTCGAATCTCCATCACTCGAGACACATCCAAGAACCAGTACTACCTGCAGTTGAATTCTGTGACTACTGAGGACACAGCCACATATTACTGT'
p153
sg29
g15
sg30
F1
sg31
I9
sg32
Nsg33
F1
sg34
(lp154
g12
(g13
g14
NtRp155
(dp156
g17
I1
sg18
g19
((lp157
g21
ag22
ag23
ag24
ag17
ag25
atRp158
sg27
S'GGACCTAGCCTCGTGAAACCTTCTCAGACTCTGTCCCTCACCTGTTCTGTCACTGGCGACTCCATCACCAGTGGTTACTGGCACTGGATCCGGAAATTCCCAGGGAATAAACTTGAGTACATGGGGTACATAAGCTACAGTGGTAGCACTTACTACAATCCATCTCTCAAAAGTCGAATCTCCATCACTCGAGACACATCCAAGAACCATTACTACCTGCAGTTGAATTCTGTGACTACTGAGGACACAGCCACATATTACTGT'
p159
sg29
g149
sg30
F1
sg31
I1
sg32
Nsg33
F1
sg34
(lp160
sg42
S'seq8'
p161
sbag12
(g13
g14
NtRp162
(dp163
g17
I1
sg18
g19
((lp164
g21
ag22
ag23
ag24
ag17
ag25
atRp165
sg27
S'GGACCTAGCCTCGTGAAACCTTCTCAGACTCTGTCCCTCACCTGTTCTGTCACTGGCGACTCCATCACCAGTGGTTACTGGCACTGGATCCGGAAATTCCCAGGGAATGAACTTGAGTACATGGGGTACATAAGCTACAGTGGTAGCACTTACTACAATCCATCTCTCAAAAGTCGAATCTCCATCACTCGAGACACATCCAAGAACCAGTACTACCTGCAGTTGAATTCTGTGACTACTGAGGACACAGCCACATATTACTGT'
p166
sg29
g149
sg30
F1
sg31
I1
sg32
Nsg33
F1
sg34
(lp167
sg42
S'seq4'
p168
sbag12
(g13
g14
NtRp169
(dp170
g17
I1
sg18
g19
((lp171
g21
ag22
ag23
ag24
ag17
ag25
atRp172
sg27
S'GGACCTAGCCTCGTGAAGCCTTCTCAGACTCTGTCCCTCACCTGTTCTGTCACTGGCGACTCCATCACCAGTGGTTACTGGCACTGGATCCGGAAATTCCCAGGGAATAAACTTGAGTACATGGGGTACATAAGCTACAGTGGTAGCACTTACTACAATCCATCTCTCAAAAGTCGAATCTCCATCACTCGAGACACATCCAAGAACCAGTACTACCTGCAGTTGAATTCTGTGACTACTGAGGACACAGCCACATATTACTGT'
p173
sg29
g149
sg30
F1
sg31
I1
sg32
Nsg33
F1
sg34
(lp174
sg42
S'seq17'
p175
sbag12
(g13
g14
NtRp176
(dp177
g17
I2
sg18
g19
((lp178
g21
ag22
ag23
ag24
ag17
ag25
atRp179
sg27
S'GGACCTAGCCTCGTGAAACCTTCTCAGACTCTGTCCCTCACCTGTTCTGTCACTGGCGACTCCATCACCAGTGGTTACTGGCACTGGATCCGGAAATTCCCAGGGAATAAACTTGAGTACATGGGGTACATAAGCTACAGTGGTAGCACTTACTACAATCCATCTCTCAAAAGTCGAATCTCCATCACTCGAGACACATCCAAGAACCAGTACTGCCTGCAGTTGAATTCTGTGACTACTGAGGACACAGCCACATATTACTGT'
p180
sg29
g149
sg30
F1
sg31
I1
sg32
Nsg33
F1
sg34
(lp181
g12
(g13
g14
NtRp182
(dp183
g17
I1
sg18
g19
((lp184
g21
ag22
ag23
ag24
ag17
ag25
atRp185
sg27
S'GGACCTAGCCTCGTGAAACCTTCTCAGACTCTGTCCCTCACCTGTTCTGTCACTGGCGACTCCATCACCAGTGGTTACTGGCACTGGATCCGGAAATTCCCAGGGAATAAAGTTGAGTACATGAGGTACATAAGCTACAGTGGTAGCACTTACTACAATCCATCTCTCAAAAGTCGAATCTCCATCACTCGAGACACATCCAAGAACCAGTACTGCCTGCAGTTGAATTCTGTGACTACTGAGGACACAGCCACATATTACTGT'
p186
sg29
g176
sg30
F2
sg31
I1
sg32
Nsg33
F1
sg34
(lp187
sg42
S'seq9'
p188
sbasg42
S'seq22'
p189
sbasg42
S'seq14'
p190
sbasg42
S'naive'
p191
sbsg4
Nsg7
Nsg6
I2
sbtp192
sb.