(i__main__
CollapsedTree
p1
(dp2
S'tree'
p3
ccopy_reg
_reconstructor
p4
(cete3.coretype.tree
TreeNode
p5
c__builtin__
object
p6
NtRp7
(dp8
S'terminated'
p9
I00
sS'partition'
p10
I50
sS'features'
p11
c__builtin__
set
p12
((lp13
S'terminated'
p14
aS'dist'
p15
aS'name'
p16
aS'sequence'
p17
aS'support'
p18
ag10
aS'frequency'
p19
aS'time'
p20
atRp21
sS'sequence'
p22
S'GGACCTAGCCTCGTGAAACCTTCTCAGACTCTGTCCCTCACCTGTTCTGTCACTGGCGACTCCATCACCAGTGGTTACTGGAACTGGATCCGGAAATTCCCAGGGAATAAACTTGAGTACATGGGGTACATAAGCTACAGTGGTAGCACTTACTACAATCCATCTCTCAAAAGTCGAATCTCCATCACTCGAGACACATCCAAGAACCAGTACTACCTGCAGTTGAATTCTGTGACTACTGAGGACACAGCCACATATTACTGT'
p23
sS'_up'
p24
NsS'_dist'
p25
F0
sS'frequency'
p26
I5
sS'_img_style'
p27
NsS'time'
p28
I0
sS'_support'
p29
F1
sS'_children'
p30
(lp31
g4
(g5
g6
NtRp32
(dp33
g9
I00
sg10
I1
sg11
g12
((lp34
g14
ag15
ag16
ag17
ag18
ag10
ag19
ag20
atRp35
sg22
S'GGACCTAGCCTCGTGAAACCTTCTCAGACTCTGTCCCTCACCTGTTCTGTCACTGGCGACTCCATCACCAGTGGTTACTGGAACTGGATCCGGAAATTCCCAGGGAATAAACTTGAGTACATGGGGTACATAAGCTACAGTGGTAGCACTTACTACAATCCATCTCTCAAAAGTCGAATCTCCATCACTCGAGACACATCCAAGAACCAGTATTACCTGCAGTTGAATTCTGTGACTACTGAGGACACAGCCACATATTACTGT'
p36
sg24
g7
sg25
F1
sg26
I1
sg27
Nsg28
I5
sg29
F1
sg30
(lp37
sS'name'
p38
S'simcell_55'
p39
sbag4
(g5
g6
NtRp40
(dp41
g9
I00
sg10
I1
sg11
g12
((lp42
g14
ag15
ag16
ag17
ag18
ag10
ag19
ag20
atRp43
sg22
S'GGACCTAGCCTCGTGAAACCTTCTCAGACTCTGTCCCTCACCTGTTCTGTCACTGGCGACTCCATCACCAGTGGTTACTGGAACTGGATCCGGAAATTCCCAGGGAATAAACTTGAGTACATGGGGTACATAAGCTACAGTGGTAGCACTTACTACAATCCATCTCTCAGAAGTCGAATCTCCATCACTCGAGACACATCCAAGAACCAGTACTACCTGCAGTTGAATTCTGTGACTACTGAGGACACAGCCACATATTACTGT'
p44
sg24
g7
sg25
F1
sg26
I1
sg27
Nsg28
I5
sg29
F1
sg30
(lp45
sg38
S'simcell_57'
p46
sbag4
(g5
g6
NtRp47
(dp48
g9
I00
sg10
I1
sg11
g12
((lp49
g14
ag15
ag16
ag17
ag18
ag10
ag19
ag20
atRp50
sg22
S'GGACCTAGCCTCGTGAAACCTTCTCAGACTCTGTCCCTCACCTGTTCTGTCACTGGCGACTCCATCACCAGTGGTTACTGGAACTGGATCCGGAAATTCCCAGGGAATAAACTTGAGTACATGGGGTACATAAGCTACAGTGGTAGCACTTACTGCAATCCATCTCTCAAAAGTCGAATCTCCATCACTCGAGACACATCCAAGAACCAGTACTACCTGCAGTTGAATTCTGTGACTACTGAGGACACAGCCACATATTACTGT'
p51
sg24
g7
sg25
F1
sg26
I1
sg27
Nsg28
I5
sg29
F1
sg30
(lp52
sg38
S'simcell_59'
p53
sbag4
(g5
g6
NtRp54
(dp55
g9
I00
sg10
I2
sg11
g12
((lp56
g14
ag15
ag16
ag17
ag18
ag10
ag19
ag20
atRp57
sg22
S'GGACCTAGCCTCGTGAAACCTTCTCAGACTCTGTCCCTCACCTGTTCTGTCACTGGCGACTCCATCACCAGTGGTTACTGGAACTGGATCCGGAAATTCCCAGGGAATAAACTTGAGTACATGGGGTACATAAGCTACAGTGATAGCACTTACTACAATCCATCTCTCAAAAGTCGAATCTCCATCACTCGAGACACATCCAAGAACCAGTACTACCTGCAGTTGAATTCTGTGACTACTGAGGACACAGCCACATATTACTGT'
p58
sg24
g7
sg25
F1
sg26
I2
sg27
Nsg28
I4
sg29
F1
sg30
(lp59
sg38
(S'simcell_53'
S'simcell_54'
tp60
sbag4
(g5
g6
NtRp61
(dp62
g9
I00
sg10
I2
sg11
g12
((lp63
g14
ag15
ag16
ag17
ag18
ag10
ag19
ag20
atRp64
sg22
S'GGACCTAGCCTCGTGAAACCTTCTCAGACTCTGTCCCTCACCTGTTCTGTCACTGGCGACTCCATCACCAGTGGTTACTGGAACTGGATCCGGAAATTCCCAGGGAATAAACTTGAGTACATGGGGTACATAAGCTACAGTGGTAGCACTTACTACAATCCATCTCTCAAAAGTCGAATCTCCATCACTCGAGACACATCCAAGAACCAGTACTACCTGCAGTTGAATTCTTTGACTACTGAGGACACAGCCACATATTACTGT'
p65
sg24
g7
sg25
F1
sg26
I2
sg27
Nsg28
I4
sg29
F1
sg30
(lp66
sg38
(S'simcell_64'
S'simcell_63'
tp67
sbag4
(g5
g6
NtRp68
(dp69
g9
I00
sg10
I4
sg11
g12
((lp70
g14
ag15
ag16
ag17
ag18
ag10
ag19
ag20
atRp71
sg22
S'GGACCTAGCCTCGTGAAACCTTCTCAGACTCTGTCCCTCACCTGTTCTGTCACTGGCGACTCCATCACCAGTGGTTACTGGAACTGGATCCGGAAATTCCCAGGGAATAAACTTGAGTACATGGGGTACATAAGCTACAGTGGTAGCACTTACTACAATCCATCTCTCAAAAGTCGAATCTCCATCACTCGAGACACATCCAAGAATCAGTACTACCTGCAGTTGAATTCTGTGACTACTGAGGACACAGCCACATATTACTGT'
p72
sg24
g7
sg25
F1
sg26
I1
sg27
Nsg28
I3
sg29
F1
sg30
(lp73
g4
(g5
g6
NtRp74
(dp75
g9
I00
sg10
I1
sg11
g12
((lp76
g14
ag15
ag16
ag17
ag18
ag10
ag19
ag20
atRp77
sg22
S'GGACCTAGCCTCGTGAAACCTTCTCAGACTCTGTCCCTCACCTGTTCTGTCACTGGCGACTCCATCACCAGTGGTTACTGGAACTGGATCCGGAAATTCCCAGGGAATAAACTTGAGTACATGGGGTACAGAAGCTACAGTGGTAGCACTTACTACAATCCATCTCTCAAAAGTCGAATCTCCATCACTCGAGACACATCCAAGAATCAGTACTACCTGCAGTTGAATTCTGTGACTACTGAGGACACAGCCACATATTACTGT'
p78
sg24
g68
sg25
F1
sg26
I1
sg27
Nsg28
I5
sg29
F1
sg30
(lp79
sg38
S'simcell_68'
p80
sbag4
(g5
g6
NtRp81
(dp82
g9
I00
sg10
I1
sg11
g12
((lp83
g14
ag15
ag16
ag17
ag18
ag10
ag19
ag20
atRp84
sg22
S'GGACCTAGCCTCGTGAAACCTTCTCAGACTCTGTCCCTCACCTGTTCTGTCACTGGCGACTCCATCACCAGTGGTTACTGGAACTGGATCCGGAAATTCCCAGGGAATAAACTTGAGTACATGGGGTACATAAGCTACAGTGGTAGCACTTACTACAATCCATCTCTCAAAAGTCGAATCTCCATCACTCGAGACACATCCAAGAATCAGTACTACCTGCAGTTGAATTCTGTGACTACTGAGGACACAGCCACATTTTACTGT'
p85
sg24
g68
sg25
F1
sg26
I1
sg27
Nsg28
I5
sg29
F1
sg30
(lp86
sg38
S'simcell_67'
p87
sbag4
(g5
g6
NtRp88
(dp89
g9
I00
sg10
I1
sg11
g12
((lp90
g14
ag15
ag16
ag17
ag18
ag10
ag19
ag20
atRp91
sg22
S'GGACCTAGCCTCGTGAAACCTTCTCAGACTCTGTCCCTCACCTGTTCTGTCACTGGCGACTCCATCACCAGTGGTTACTGGAACTGGATCCGGAAATTCCCAGGGAATAAACTTGAGTACATGGGGTACATAAGCTACAGTGGTAGCACTTACTACAATCCATCTCTCAAAAGTCGAATCTCCATCACTCGAGACACATCCAAGAATCAGTACTACTTGCAGTTGAATTCTGTGACTACTGAGGACACAGCCACATATTACTGT'
p92
sg24
g68
sg25
F1
sg26
I1
sg27
Nsg28
I5
sg29
F1
sg30
(lp93
sg38
S'simcell_65'
p94
sbasg38
S'simcell_66'
p95
sbag4
(g5
g6
NtRp96
(dp97
g9
I00
sg10
I6
sg11
g12
((lp98
g14
ag15
ag16
ag17
ag18
ag10
ag19
ag20
atRp99
sg22
S'GGACCTAGCCTCGTGAAACCTTCTCAGACTCTGTCCCTCACCTGTTCTGTCACTGGCGACTCCATCACCAGTGGTTACTGGAACTGGATCCGGAAATTCCCAGGGAATAAACTTGAGTACATGGGGTACATAAGCTACAGTGGTAGCACTTACTACAATCCATCTCTCAAAAGTCGAATCTCCATCACTCGAGACACATCCAAGAACCAGTACTACCTGCAGTTGAAATCTGTGACTACTGAGGACACAGCCACATATTACTGT'
p100
sg24
g7
sg25
F1
sg26
I5
sg27
Nsg28
I3
sg29
F1
sg30
(lp101
g4
(g5
g6
NtRp102
(dp103
g9
I00
sg10
I1
sg11
g12
((lp104
g14
ag15
ag16
ag17
ag18
ag10
ag19
ag20
atRp105
sg22
S'GGACCTAGCCTCGTGAAACCTTCTCAGACTCTGTCCCTCACCTGTTCTGTCACTGGCGACTCCATCACCAGTGGTTACTGGAACTGGATCCGGAACTTCCCAGGGAATAAACTTGAGTACATGGGGTACATAAGCTACAGTGGTAGCACTTACTACAATCCATCTCTCAAAAGTCGAATCTCCATCACTCGAGACACATCCAAGAACCAGTACTACCTGCAGTTGAAATCTGTGACTACTGAGGACACAGCCACATATTACTGT'
p106
sg24
g96
sg25
F1
sg26
I1
sg27
Nsg28
I5
sg29
F1
sg30
(lp107
sg38
S'simcell_72'
p108
sbasg38
(S'simcell_73'
S'simcell_71'
S'simcell_70'
S'simcell_69'
S'simcell_74'
tp109
sbag4
(g5
g6
NtRp110
(dp111
g9
I00
sg10
I14
sg11
g12
((lp112
g14
ag15
ag16
ag17
ag18
ag10
ag19
ag20
atRp113
sg22
S'GGACCTAGCCTCGTGAAACCTTCTCAGACTCTGTCCCTCACCTGTTCTGTCACTGGCGACTCCATCACCAGTGGTTACGGGAACTGGATCCGGAAATTCCCAGGGAATAAACTTGAGTACATGGGGTACATAAGCTACAGTGGTAGCACTTACTACAATCCATCTCTCAAAAGTCGAATCTCCATCACTCGAGACACATCCAAGAACCAGTACTACCTGCAGTTGAATTCTGTGACTACTGAGGACACAGCCACATATTACTGT'
p114
sg24
g7
sg25
F1
sg26
I8
sg27
Nsg28
I2
sg29
F1
sg30
(lp115
g4
(g5
g6
NtRp116
(dp117
g9
I00
sg10
I1
sg11
g12
((lp118
g14
ag15
ag16
ag17
ag18
ag10
ag19
ag20
atRp119
sg22
S'GGACCTAGCCTCGTGAAACCTTCTCAGACTCTGTCCCTCACCTGTTCTGTCACTGGCGCCTCCATCACCAGTGGTTACGGGAACTGGATCCGGAAATTCCCAGGGAATAAACTTGAGTACATGGGGTACATAAGCTACAGTGGTAGCACTTACTACAATCCATCTCTCAAAAGTCGAATCTCCATCACTCGAGACACATCCAAGAACCAGTACTACCTGCAGTTGAATTCTGTGACTACTGAGGACACAGCCACATATTACTGT'
p120
sg24
g110
sg25
F1
sg26
I1
sg27
Nsg28
I5
sg29
F1
sg30
(lp121
sg38
S'simcell_93'
p122
sbag4
(g5
g6
NtRp123
(dp124
g9
I00
sg10
I1
sg11
g12
((lp125
g14
ag15
ag16
ag17
ag18
ag10
ag19
ag20
atRp126
sg22
S'GGACCTAGCCTCGTGAAACCTTCTCAGACTCTGTCCGTCACCTGTTCTGTCACTGGCGACTCCATCACCAGTGGTTACGGGAACTGGATCCGGAAATTCCCAGGGAATAAACTTGAGTACATGGGGTACATAAGCTCCAGTGGTAGCACTTACTACAATCCATCTCTCAAAAGTCGAATCTCCATCACTCGAGACACATCCAAGAACCAGTACTACCTGCAGTTGAATTCTGTGACTACTGAGGACACAGCCACATATTACTGT'
p127
sg24
g110
sg25
F2
sg26
I1
sg27
Nsg28
I5
sg29
F1
sg30
(lp128
sg38
S'simcell_101'
p129
sbag4
(g5
g6
NtRp130
(dp131
g9
I00
sg10
I2
sg11
g12
((lp132
g14
ag15
ag16
ag17
ag18
ag10
ag19
ag20
atRp133
sg22
S'GGACCCAGCCTCGTGAAACCTTCTCAGACTCTGTCCCTCACCTGTTCTGTCACTGGCGACTCCATCACCAGTGGTTACGGGAACTGGATCCGGAAATTCCCAGGGAATAAACTTGAGTACATGGGGTACATAAGCTACAGTGGTAGCACTTACTACAATCCATCTCTCAAAAGTCGAATCTCCATCACTCGAGACACATCCAAGAACCAGTACTACCTGCAGTTGAATTCTGTGACTACTGAGGACACAGCCACATATTACTGT'
p134
sg24
g110
sg25
F1
sg26
I2
sg27
Nsg28
I4
sg29
F1
sg30
(lp135
sg38
(S'simcell_97'
S'simcell_98'
tp136
sbag4
(g5
g6
NtRp137
(dp138
g9
I00
sg10
I2
sg11
g12
((lp139
g14
ag15
ag16
ag17
ag18
ag10
ag19
ag20
atRp140
sg22
S'GGACCTAGCCTCGTGAAACCTTCTCAGACTCTGTCCCTCACCTGTTCTGTCACTGGCGACTCCATCACCAGTGGGTACGGGAACTGGATCCGGAAATTCCCAGGGAATAAACTTGAGTACATGGGGTACATAAGCTACAGTGGTAGCACTTACTACAATCCATCTCTCAAAAGTCGAATCTCCATCACTCGAGACACATCCAAGAACCAGTACTACCTGCAGTTGAATTCTGTGACTACTGAGGACACAGCCACATATTACTGT'
p141
sg24
g110
sg25
F1
sg26
I2
sg27
Nsg28
I4
sg29
F1
sg30
(lp142
sg38
(S'simcell_99'
S'simcell_100'
tp143
sbasg38
(S'simcell_95'
S'simcell_94'
S'simcell_96'
S'simcell_91'
S'simcell_90'
S'simcell_92'
S'simcell_102'
S'simcell_89'
tp144
sbag4
(g5
g6
NtRp145
(dp146
g9
I00
sg10
I14
sg11
g12
((lp147
g14
ag15
ag16
ag17
ag18
ag10
ag19
ag20
atRp148
sg22
S'GGACCTAGCCTCGTGAAACCTTCTCAGACTCTGTCCCTCACCTGTTCTGTCACTGGCGACTCCATCACCAGTGGTTACTGGCACTGGATCCGGAAATTCCCAGGGAATAAACTTGAGTACATGGGGTACATAAGCTACAGTGGTAGCACTTACTACAATCCATCTCTCAAAAGTCGAATCTCCATCACTCGAGACACATCCAAGAACCAGTACTACCTGCAGTTGAATTCTGTGACTACTGAGGACACAGCCACATATTACTGT'
p149
sg24
g7
sg25
F1
sg26
I9
sg27
Nsg28
I1
sg29
F1
sg30
(lp150
g4
(g5
g6
NtRp151
(dp152
g9
I00
sg10
I1
sg11
g12
((lp153
g14
ag15
ag16
ag17
ag18
ag10
ag19
ag20
atRp154
sg22
S'GGACCTAGCCTCGTGAAACCTTCTCAGACTCTGTCCCTCACCTGTTCTGTCACTGGCGACTCCATCACCAGTGGTTACTGGCACTGGATCCGGAAATTCCCAGGGAATAAACTTGAGTACATGGGGTACATAAGCTACAGTGGTAGCACTTACTACAATCCATCTCTCAAAAGTCGAATCTCCATCACTCGAGACACATCCAAGAACCATTACTACCTGCAGTTGAATTCTGTGACTACTGAGGACACAGCCACATATTACTGT'
p155
sg24
g145
sg25
F1
sg26
I1
sg27
Nsg28
I5
sg29
F1
sg30
(lp156
sg38
S'simcell_77'
p157
sbag4
(g5
g6
NtRp158
(dp159
g9
I00
sg10
I1
sg11
g12
((lp160
g14
ag15
ag16
ag17
ag18
ag10
ag19
ag20
atRp161
sg22
S'GGACCTAGCCTCGTGAAACCTTCTCAGACTCTGTCCCTCACCTGTTCTGTCACTGGCGACTCCATCACCAGTGGTTACTGGCACTGGATCCGGAAATTCCCAGGGAATGAACTTGAGTACATGGGGTACATAAGCTACAGTGGTAGCACTTACTACAATCCATCTCTCAAAAGTCGAATCTCCATCACTCGAGACACATCCAAGAACCAGTACTACCTGCAGTTGAATTCTGTGACTACTGAGGACACAGCCACATATTACTGT'
p162
sg24
g145
sg25
F1
sg26
I1
sg27
Nsg28
I5
sg29
F1
sg30
(lp163
sg38
S'simcell_85'
p164
sbag4
(g5
g6
NtRp165
(dp166
g9
I00
sg10
I1
sg11
g12
((lp167
g14
ag15
ag16
ag17
ag18
ag10
ag19
ag20
atRp168
sg22
S'GGACCTAGCCTCGTGAAGCCTTCTCAGACTCTGTCCCTCACCTGTTCTGTCACTGGCGACTCCATCACCAGTGGTTACTGGCACTGGATCCGGAAATTCCCAGGGAATAAACTTGAGTACATGGGGTACATAAGCTACAGTGGTAGCACTTACTACAATCCATCTCTCAAAAGTCGAATCTCCATCACTCGAGACACATCCAAGAACCAGTACTACCTGCAGTTGAATTCTGTGACTACTGAGGACACAGCCACATATTACTGT'
p169
sg24
g145
sg25
F1
sg26
I1
sg27
Nsg28
I5
sg29
F1
sg30
(lp170
sg38
S'simcell_84'
p171
sbag4
(g5
g6
NtRp172
(dp173
g9
I00
sg10
I2
sg11
g12
((lp174
g14
ag15
ag16
ag17
ag18
ag10
ag19
ag20
atRp175
sg22
S'GGACCTAGCCTCGTGAAACCTTCTCAGACTCTGTCCCTCACCTGTTCTGTCACTGGCGACTCCATCACCAGTGGTTACTGGCACTGGATCCGGAAATTCCCAGGGAATAAACTTGAGTACATGGGGTACATAAGCTACAGTGGTAGCACTTACTACAATCCATCTCTCAAAAGTCGAATCTCCATCACTCGAGACACATCCAAGAACCAGTACTGCCTGCAGTTGAATTCTGTGACTACTGAGGACACAGCCACATATTACTGT'
p176
sg24
g145
sg25
F1
sg26
I1
sg27
Nsg28
I3
sg29
F1
sg30
(lp177
g4
(g5
g6
NtRp178
(dp179
g9
I00
sg10
I1
sg11
g12
((lp180
g14
ag15
ag16
ag17
ag18
ag10
ag19
ag20
atRp181
sg22
S'GGACCTAGCCTCGTGAAACCTTCTCAGACTCTGTCCCTCACCTGTTCTGTCACTGGCGACTCCATCACCAGTGGTTACTGGCACTGGATCCGGAAATTCCCAGGGAATAAAGTTGAGTACATGAGGTACATAAGCTACAGTGGTAGCACTTACTACAATCCATCTCTCAAAAGTCGAATCTCCATCACTCGAGACACATCCAAGAACCAGTACTGCCTGCAGTTGAATTCTGTGACTACTGAGGACACAGCCACATATTACTGT'
p182
sg24
g172
sg25
F2
sg26
I1
sg27
Nsg28
I5
sg29
F1
sg30
(lp183
sg38
S'simcell_75'
p184
sbasg38
S'simcell_76'
p185
sbasg38
(S'simcell_86'
S'simcell_87'
S'simcell_79'
S'simcell_78'
S'simcell_82'
S'simcell_83'
S'simcell_80'
S'simcell_81'
S'simcell_88'
tp186
sbasg38
(S'simcell_60'
S'simcell_61'
S'simcell_62'
S'simcell_56'
S'simcell_58'
S'simcell_1'
tp187
sbsS'frame'
p188
NsS'params'
p189
NsS'_nparams'
p190
I2
sb.