(i__main__
CollapsedTree
p1
(dp2
S'tree'
p3
ccopy_reg
_reconstructor
p4
(cete3.coretype.tree
TreeNode
p5
c__builtin__
object
p6
NtRp7
(dp8
S'terminated'
p9
I00
sS'partition'
p10
I50
sS'features'
p11
c__builtin__
set
p12
((lp13
S'terminated'
p14
aS'dist'
p15
aS'name'
p16
aS'sequence'
p17
aS'support'
p18
ag10
aS'frequency'
p19
aS'time'
p20
atRp21
sS'sequence'
p22
S'GGACCTAGCCTCGTGAAACCTTCTCAGACTCTGTCCCTCACCTGTTCTGTCACTGGCGACTCCATCACCAGTGGTTACTGGAACTGGATCCGGAAATTCCCAGGGAATAAACTTGAGTACATGGGGTACATAAGCTACAGTGGTAGCACTTACTACAATCCATCTCTCAAAAGTCGAATCTCCATCACTCGAGACACATCCAAGAACCAGTACTACCTGCAGTTGAATTCTGTGACTACTGAGGACACAGCCACATATTACTGT'
p23
sS'_up'
p24
NsS'_dist'
p25
F0
sS'frequency'
p26
I24
sS'_img_style'
p27
NsS'time'
p28
I0
sS'_support'
p29
F1
sS'_children'
p30
(lp31
g4
(g5
g6
NtRp32
(dp33
g9
I00
sg10
I1
sg11
g12
((lp34
g14
ag15
ag16
ag17
ag18
ag10
ag19
ag20
atRp35
sg22
S'GGACCTAGCCTCGTGAAACCTTCTCAGACTCTGCCCCTCACCTGTTCTGTCACTGGCGACTCCATCACCAGTGGTTACTGGAACTGGATCCGGAGATTCCCAGGGAATAAACTTGAGTACATGGGGTACATAATCTACAGTGGTAGCACTTACTACAATCCATCTCTCAAAAGTCGAATCTCCATCACTCGAGACACATCCAAGAACCAGTACTACCTGCAGTTGAATTCTGTGACTACTGAGGACACAGCCACATATTACTGT'
p36
sg24
g7
sg25
F3
sg26
I1
sg27
Nsg28
I5
sg29
F1
sg30
(lp37
sS'name'
p38
S'simcell_77'
p39
sbag4
(g5
g6
NtRp40
(dp41
g9
I00
sg10
I1
sg11
g12
((lp42
g14
ag15
ag16
ag17
ag18
ag10
ag19
ag20
atRp43
sg22
S'GGACCTAGCCTCGTGAAACCTTCTCAGACTCTGTCCCTCACCTGTACTGTCACTGGCGACTCCATCACCAGTGGTTACTGGAACTGGATCCGGAAATTCCCAGGGAATAAACTTGAGTACATGGGGTACATAAGCTATAGTGGTAGCACTTACTACAATCCATCTCTCAAAAGTCGAATCTCCATCACTCGAGACACATCCAAGAACCAGTACTACCTGCAGTTGAATTCTGTGACTACTGAGGACACAGCCACATATTACTGT'
p44
sg24
g7
sg25
F2
sg26
I1
sg27
Nsg28
I5
sg29
F1
sg30
(lp45
sg38
S'simcell_58'
p46
sbag4
(g5
g6
NtRp47
(dp48
g9
I00
sg10
I1
sg11
g12
((lp49
g14
ag15
ag16
ag17
ag18
ag10
ag19
ag20
atRp50
sg22
S'GGACCTAGCCTCGTGAAACCTTCTCAGACTCTGTCCCTCACCTGTTCTGTCACTGGCGACTCCATCACCAGTGGTTACTGGAACTGGATCCGGAAATTCCCAGGGAATAAACTTGAGTACATGGGGTACATAAGCTACAGTGGCAGCACTTACTACAATCCATCTCTCAAAAGTCGAATCTCCATCACTCGAGACACATCCAAGAACCAGTACTACCTGCAGTTGAATTCTGTGACTACTGAGGACACAGCCACATATTACTGT'
p51
sg24
g7
sg25
F1
sg26
I1
sg27
Nsg28
I5
sg29
F1
sg30
(lp52
sg38
S'simcell_92'
p53
sbag4
(g5
g6
NtRp54
(dp55
g9
I00
sg10
I1
sg11
g12
((lp56
g14
ag15
ag16
ag17
ag18
ag10
ag19
ag20
atRp57
sg22
S'GGACCTAGCCTCGTGAAACCTTCTCAGACTCTGTCCCTCACCTGTTCTGTCACTGGCGACTCCATCACCAGTGGTTACTGGAACTGGATCCGGAAATTCCCAGGGAATAAACTTGAGTACATGGGGTACATAAGCTACAGTGGTAGCACTTACTACAATCCATCTCTCAAAAGTCGAATCTCCATCACTCGAGACACATCCAAGAACCAGTACTACCTGCAGTTGAATTCTGTGACTACTGATGACACAGCCACATATTACTGT'
p58
sg24
g7
sg25
F1
sg26
I1
sg27
Nsg28
I5
sg29
F1
sg30
(lp59
sg38
S'simcell_81'
p60
sbag4
(g5
g6
NtRp61
(dp62
g9
I00
sg10
I1
sg11
g12
((lp63
g14
ag15
ag16
ag17
ag18
ag10
ag19
ag20
atRp64
sg22
S'GGACCTAGCCTCGTGAAACCTTCTCAGACTCTGTCCCTCACCTGTTCTGTCACTGGCGACTCCATCACCAGTGGTTACTGGAACTGGATCCGGAAATTCCCAGGGAATAAACTTGAGTACATGGGGTACATAAGCTACAGTGGTAGCACTTACTACAATCCATCTCTCAAAAGTCGAATCTCCATCACTCGAGACACATCCAAGAACCAGTACTACCTGCAGTTGAATTCTGTGACTAGTGAGGACACAGCCACATATTACTGT'
p65
sg24
g7
sg25
F1
sg26
I1
sg27
Nsg28
I5
sg29
F1
sg30
(lp66
sg38
S'simcell_97'
p67
sbag4
(g5
g6
NtRp68
(dp69
g9
I00
sg10
I1
sg11
g12
((lp70
g14
ag15
ag16
ag17
ag18
ag10
ag19
ag20
atRp71
sg22
S'GGACCTAGCCTCGTGAAACCTTCTCAGACTCTGTCCCTCACCTGTTCTGTCACTGGCGACTCCATCACCAGTGGTTACTGGAACTGGATCCGGAAATTCCCAGGGAATAAACTTGAGTACATGGGGTACATAAGCTACAGTGGTAGCACTTACTACAATCCATCTCTCAAAAGTCGAATCTCCATCACTCGAGACACATCCAAGAACCAGTATTACCTGCAGTTGAATTCTGTGACTACTGAGGACACAGCCACATATTACTGT'
p72
sg24
g7
sg25
F1
sg26
I1
sg27
Nsg28
I5
sg29
F1
sg30
(lp73
sg38
S'simcell_96'
p74
sbag4
(g5
g6
NtRp75
(dp76
g9
I00
sg10
I1
sg11
g12
((lp77
g14
ag15
ag16
ag17
ag18
ag10
ag19
ag20
atRp78
sg22
S'GGACCTAGCCTCGTGAAACCTTCTCAGACTCTGTCCCTCACCTGTTCTGTCACTGGCGACTCCATCACCAGTGGTTACTGGAACTGGATCCGGAAATTCCCAGGGAATAAACTTGAGTACATGGGGTACATAAGCTACAGTGGTAGCACTTACTACAATCCATCTCTCAAAAGTCGAATCTCCATCACTCGAGACACATCCAAGAACTAGTACTACCTGCAGTTGAATTCTGTGACTACTGAGGACACAGCCACATATTACTGT'
p79
sg24
g7
sg25
F1
sg26
I1
sg27
Nsg28
I5
sg29
F1
sg30
(lp80
sg38
S'simcell_53'
p81
sbag4
(g5
g6
NtRp82
(dp83
g9
I00
sg10
I1
sg11
g12
((lp84
g14
ag15
ag16
ag17
ag18
ag10
ag19
ag20
atRp85
sg22
S'GGACCTAGCCTCGTGAAACCTTCTCAGACTCTGTCCCTCACCTGTTCTGTCACTGGCGACTCCATCACCAGTGGTTACTGGAACTGGATCCGGAAATTCCCAGGGAATAAACTTGAGTACATGGGGTACATAAGCTACAGTGGTAGCACTTACTACAATCCATCTCTCAAAAGTCGAATCTCCATCACTCGAGACATATCCAAGAACCAGTACTACCTGCAGTTGAATTCTGTGACTACTGAGGACACAGCCACATATTACTGT'
p86
sg24
g7
sg25
F1
sg26
I1
sg27
Nsg28
I5
sg29
F1
sg30
(lp87
sg38
S'simcell_55'
p88
sbag4
(g5
g6
NtRp89
(dp90
g9
I00
sg10
I1
sg11
g12
((lp91
g14
ag15
ag16
ag17
ag18
ag10
ag19
ag20
atRp92
sg22
S'GGACCTAGCCTCGTGAAACCTTCTCAGACTCTGTCCCTCACCTGTTCTGTCACTGGCGACTCCATCACCAGTGGTTACTGGAACTGGATCCGGAAATTCCCAGGGAATAAACTTGAGTACATGGGGTACATAAGGTACAGTGGTAGCACTTACTACAATCCATCTCTCAAAAGTCGAATCTCCATCACTCGAGACACACCCAAGAACCAGTACTACCTGCAGTTGAATTCTGTGACTACTGAGGACACAGCCACATATTACTGT'
p93
sg24
g7
sg25
F2
sg26
I1
sg27
Nsg28
I5
sg29
F1
sg30
(lp94
sg38
S'simcell_63'
p95
sbag4
(g5
g6
NtRp96
(dp97
g9
I00
sg10
I1
sg11
g12
((lp98
g14
ag15
ag16
ag17
ag18
ag10
ag19
ag20
atRp99
sg22
S'GGACCTAGCCTCGTGAAACCTTCTCAGACTCTGTCCCTCACCTGTTCTGTCACTGGCGACTCCATCACCAGTGGTTACTGGAACTGGATCCGGAAATTCCCAGGGAATAAACTTGAGTGCATGGGGTACATAAGCTACAGTGGTAGCACTTACTACAATCCATCTCTCAAAAGTCGAATCTCCTTCACTCGAGACACATCCAAGAACCAGTACTACCTGCAGTTGAATTCTGTGACTACTGAGGACACAGCCACATATTACTGT'
p100
sg24
g7
sg25
F2
sg26
I1
sg27
Nsg28
I5
sg29
F1
sg30
(lp101
sg38
S'simcell_52'
p102
sbag4
(g5
g6
NtRp103
(dp104
g9
I00
sg10
I1
sg11
g12
((lp105
g14
ag15
ag16
ag17
ag18
ag10
ag19
ag20
atRp106
sg22
S'GGACCTAGCCTCGTGAAACCTTCTCCGACTCTGTCCCTCACCTGTTCTGTCACTGGCGACTCCATCACCAGTGGTTACTGGAACTGGATCCGGAAATTCCCAGGGAATAAACTTGAGTACATGGGGTACATAAGCTACAGTGGTAGCACTTACTACAATCCATCTCTCAAAAGTCGAATCTCCATCACTCGAGACACATCCAAGAACCAGTACTACCTGCAGTTGAATTCTGTGACTACTGAGGACACAGCCACATATTACTGT'
p107
sg24
g7
sg25
F1
sg26
I1
sg27
Nsg28
I5
sg29
F1
sg30
(lp108
sg38
S'simcell_68'
p109
sbag4
(g5
g6
NtRp110
(dp111
g9
I00
sg10
I2
sg11
g12
((lp112
g14
ag15
ag16
ag17
ag18
ag10
ag19
ag20
atRp113
sg22
S'GGACCTAGCCTCGTGAAACCTTCTCAGACTCTGTCCCTCACCTGTTCTGTCACTGGCGACTCCATCACCAGTGGTTACTGGAACTGGATCCGGAAATTCCCAGGGAATAAACTTGAGTACTTGGGGTACATAAGCTACAGTGGTAGCACTTACTACAATCCATCTCTCAAAAGTCGAATCTCCATCACTCGAGACACATCCAAGAACCAGTACTACCTGCAGTTGAATTCTGTGACTACTGAGGACACAGCCACATATTACTGT'
p114
sg24
g7
sg25
F1
sg26
I1
sg27
Nsg28
I4
sg29
F1
sg30
(lp115
g4
(g5
g6
NtRp116
(dp117
g9
I00
sg10
I1
sg11
g12
((lp118
g14
ag15
ag16
ag17
ag18
ag10
ag19
ag20
atRp119
sg22
S'GGACCTAGCCTCGTGAAACCTTCTCAGACTCTGTCCCTCACCTGTTCTGTCACTGGCGACTCCATCACCAGTGGTTACTGGAACTGGATCCGGAAATTCCCAGGGAATAAACTTGAGTACTTGGGGAACATAAGCTACAGTGGTAGCACTTACTACAATCCATCTCTCAAAAGTCGAATCTCCATCACTCGAGACACATCCAAGAACCAGTACTACCTGCAGTTGAATTCTGTGACTACTGAGGACACAGCCACATATTACTGT'
p120
sg24
g110
sg25
F1
sg26
I1
sg27
Nsg28
I5
sg29
F1
sg30
(lp121
sg38
S'simcell_79'
p122
sbasg38
S'simcell_78'
p123
sbag4
(g5
g6
NtRp124
(dp125
g9
I00
sg10
I2
sg11
g12
((lp126
g14
ag15
ag16
ag17
ag18
ag10
ag19
ag20
atRp127
sg22
S'GGACCTAGCCTCGTGAAACCTTCTCAGACTCTGTCCCTCACCTGTTCTGTCACTGGCGACTCCATCACCAGTGGTTACTGGAAGTGGATCCGGAAATTCCCAGGGAATAAACTTGAGTACATGGGGTACATAAGCTACAGTGGTAGCACTTACTACAATCCATCTCTCAAAAGTCGAATCTCCATCACTCGAGACACATCCAAGAACCAGTACTACCTGCAGTTGAATTCTGTGACTACTGAGGACACAGCCACATATTACTGT'
p128
sg24
g7
sg25
F1
sg26
I2
sg27
Nsg28
I3
sg29
F1
sg30
(lp129
sg38
(S'simcell_76'
S'simcell_75'
tp130
sbag4
(g5
g6
NtRp131
(dp132
g9
I00
sg10
I3
sg11
g12
((lp133
g14
ag15
ag16
ag17
ag18
ag10
ag19
ag20
atRp134
sg22
S'GGACCTAGCCTCGTGAAACCTTCTCAGACTCTGTCCCTCCCCTGTTCTGTCACTGGCGACTCCATCACCAGTGGTTACTGGAACTGGATCCGGAAATTCCCAGGGAATAAACTTGAGTACATGGGGTACATAAGCTACAGTGGTAGCACTTACTACAATCCATCTCTCAAAAGTCGAATCTCCATCACTCGAGACACATCCAAGAACCAGTACTACCTGCAGTTGAATTCTGTGACTACTGAGGACACAGCCACATATTACTGT'
p135
sg24
g7
sg25
F1
sg26
I3
sg27
Nsg28
I4
sg29
F1
sg30
(lp136
sg38
(S'simcell_87'
S'simcell_88'
S'simcell_89'
tp137
sbag4
(g5
g6
NtRp138
(dp139
g9
I00
sg10
I4
sg11
g12
((lp140
g14
ag15
ag16
ag17
ag18
ag10
ag19
ag20
atRp141
sg22
S'GGACCTAGCCTCGTGAAACCTTCTCAGACTCTGTCCCTCACCTGTTCTGTCACTGGCGACTCCATCACCAGTGGTTACTGGAACTGGATCCGGAAATTCCCAGAGAATAAACTTGAGTACATGGGGTACATAAGCTACAGTGGTAGCACTTACTACAATCCATCTCTCAAAAGTCGAATCTCCATCACTCGAGACACATCCAAGAACCAGTACTACCTGCAGTTGAATTCTGTGACTACTGAGGACACAGCCACATATTACTGT'
p142
sg24
g7
sg25
F1
sg26
I3
sg27
Nsg28
I4
sg29
F1
sg30
(lp143
g4
(g5
g6
NtRp144
(dp145
g9
I00
sg10
I1
sg11
g12
((lp146
g14
ag15
ag16
ag17
ag18
ag10
ag19
ag20
atRp147
sg22
S'GGACCTAGCCTCGTGAAACCTTCTCAGACTCTGTCCCTCACCTGTTCTGTCACTGGCGACTCCATCACCAGTGGTTACTGGAACTGGATCCGGAAATTCCCAGAGAATAAACTTGAGTACATGGGGTACATAAGTTACAGTGGTAGCACTTACTACAATCCATCTCTCAAAAGTCGAATCTCCATCACTCGAGACACATCCAAGAACCAGTACTACCTGCAGTTGAATTCTGTGACTACTGAGGACACAGCCACATATTACTGT'
p148
sg24
g138
sg25
F1
sg26
I1
sg27
Nsg28
I5
sg29
F1
sg30
(lp149
sg38
S'simcell_48'
p150
sbasg38
(S'simcell_51'
S'simcell_50'
S'simcell_49'
tp151
sbag4
(g5
g6
NtRp152
(dp153
g9
I00
sg10
I4
sg11
g12
((lp154
g14
ag15
ag16
ag17
ag18
ag10
ag19
ag20
atRp155
sg22
S'GGACCTAGCCTCGTGAAACCTTCTCAGACTCTGTCCCTCACCTGTTCTGTCACTGGCGACTCCATCACCAGTGGTTACTGGAACTGGATCCGGAAATTCCCAGGGAATAAACTTGATTACATGGGGTACATAAGCTACAGTGGTAGCACTTACTACAATCCATCTCTCAAAAGTCGAATCTCCATCACTCGAGACACATCCAAGAACCAGTACTACCTGCAGTTGGATTCTGTGACTACTGAGGACACAGCCACATATTACTGT'
p156
sg24
g7
sg25
F2
sg26
I4
sg27
Nsg28
I4
sg29
F1
sg30
(lp157
sg38
(S'simcell_73'
S'simcell_72'
S'simcell_71'
S'simcell_70'
tp158
sbasg38
(S'simcell_1'
S'simcell_93'
S'simcell_57'
S'simcell_86'
S'simcell_64'
S'simcell_65'
S'simcell_66'
S'simcell_67'
S'simcell_60'
S'simcell_61'
S'simcell_62'
S'simcell_56'
S'simcell_59'
S'simcell_69'
S'simcell_54'
S'simcell_95'
S'simcell_94'
S'simcell_84'
S'simcell_85'
S'simcell_82'
S'simcell_83'
S'simcell_80'
S'simcell_91'
S'simcell_74'
S'simcell_90'
tp159
sbsS'frame'
p160
NsS'params'
p161
NsS'_nparams'
p162
I2
sb.