(i__main__
CollapsedForest
p1
(dp2
S'n_trees'
p3
I1
sS'frame'
p4
NsS'tree'
p5
NsS'_nparams'
p6
I2
sS'params'
p7
(lp8
F0.49494949505725155
aF0.18367347084548566
asS'forest'
p9
((i__main__
CollapsedTree
p10
(dp11
g5
ccopy_reg
_reconstructor
p12
(cete3.coretype.tree
TreeNode
p13
c__builtin__
object
p14
NtRp15
(dp16
S'partition'
p17
I50
sS'features'
p18
c__builtin__
set
p19
((lp20
S'dist'
p21
aS'name'
p22
aS'sequence'
p23
aS'support'
p24
ag17
aS'frequency'
p25
atRp26
sS'sequence'
p27
S'GGACCTAGCCTCGTGAAACCTTCTCAGACTCTGTCCCTCACCTGTTCTGTCACTGGCGACTCCATCACCAGTGGTTACTGGAACTGGATCCGGAAATTCCCAGGGAATAAACTTGAGTACATGGGGTACATAAGCTACAGTGGTAGCACTTACTACAATCCATCTCTCAAAAGTCGAATCTCCATCACTCGAGACACATCCAAGAACCAGTACTACCTGCAGTTGAATTCTGTGACTACTGAGGACACAGCCACATATTACTGT'
p28
sS'_up'
p29
NsS'_dist'
p30
F0
sS'frequency'
p31
I24
sS'_img_style'
p32
NsS'_support'
p33
F1
sS'_children'
p34
(lp35
g12
(g13
g14
NtRp36
(dp37
g17
I1
sg18
g19
((lp38
g21
ag22
ag23
ag24
ag17
ag25
atRp39
sg27
S'GGACCTAGCCTCGTGAAACCTTCTCAGACTCTGCCCCTCACCTGTTCTGTCACTGGCGACTCCATCACCAGTGGTTACTGGAACTGGATCCGGAGATTCCCAGGGAATAAACTTGAGTACATGGGGTACATAATCTACAGTGGTAGCACTTACTACAATCCATCTCTCAAAAGTCGAATCTCCATCACTCGAGACACATCCAAGAACCAGTACTACCTGCAGTTGAATTCTGTGACTACTGAGGACACAGCCACATATTACTGT'
p40
sg29
g15
sg30
F3
sg31
I1
sg32
Nsg33
F1
sg34
(lp41
sS'name'
p42
S'seq9'
p43
sbag12
(g13
g14
NtRp44
(dp45
g17
I1
sg18
g19
((lp46
g21
ag22
ag23
ag24
ag17
ag25
atRp47
sg27
S'GGACCTAGCCTCGTGAAACCTTCTCAGACTCTGTCCCTCACCTGTACTGTCACTGGCGACTCCATCACCAGTGGTTACTGGAACTGGATCCGGAAATTCCCAGGGAATAAACTTGAGTACATGGGGTACATAAGCTATAGTGGTAGCACTTACTACAATCCATCTCTCAAAAGTCGAATCTCCATCACTCGAGACACATCCAAGAACCAGTACTACCTGCAGTTGAATTCTGTGACTACTGAGGACACAGCCACATATTACTGT'
p48
sg29
g15
sg30
F2
sg31
I1
sg32
Nsg33
F1
sg34
(lp49
sg42
S'seq6'
p50
sbag12
(g13
g14
NtRp51
(dp52
g17
I1
sg18
g19
((lp53
g21
ag22
ag23
ag24
ag17
ag25
atRp54
sg27
S'GGACCTAGCCTCGTGAAACCTTCTCAGACTCTGTCCCTCACCTGTTCTGTCACTGGCGACTCCATCACCAGTGGTTACTGGAACTGGATCCGGAAATTCCCAGGGAATAAACTTGAGTACATGGGGTACATAAGCTACAGTGGCAGCACTTACTACAATCCATCTCTCAAAAGTCGAATCTCCATCACTCGAGACACATCCAAGAACCAGTACTACCTGCAGTTGAATTCTGTGACTACTGAGGACACAGCCACATATTACTGT'
p55
sg29
g15
sg30
F1
sg31
I1
sg32
Nsg33
F1
sg34
(lp56
sg42
S'seq15'
p57
sbag12
(g13
g14
NtRp58
(dp59
g17
I1
sg18
g19
((lp60
g21
ag22
ag23
ag24
ag17
ag25
atRp61
sg27
S'GGACCTAGCCTCGTGAAACCTTCTCAGACTCTGTCCCTCACCTGTTCTGTCACTGGCGACTCCATCACCAGTGGTTACTGGAACTGGATCCGGAAATTCCCAGGGAATAAACTTGAGTACATGGGGTACATAAGCTACAGTGGTAGCACTTACTACAATCCATCTCTCAAAAGTCGAATCTCCATCACTCGAGACACATCCAAGAACCAGTACTACCTGCAGTTGAATTCTGTGACTACTGATGACACAGCCACATATTACTGT'
p62
sg29
g15
sg30
F1
sg31
I1
sg32
Nsg33
F1
sg34
(lp63
sg42
S'seq18'
p64
sbag12
(g13
g14
NtRp65
(dp66
g17
I1
sg18
g19
((lp67
g21
ag22
ag23
ag24
ag17
ag25
atRp68
sg27
S'GGACCTAGCCTCGTGAAACCTTCTCAGACTCTGTCCCTCACCTGTTCTGTCACTGGCGACTCCATCACCAGTGGTTACTGGAACTGGATCCGGAAATTCCCAGGGAATAAACTTGAGTACATGGGGTACATAAGCTACAGTGGTAGCACTTACTACAATCCATCTCTCAAAAGTCGAATCTCCATCACTCGAGACACATCCAAGAACCAGTACTACCTGCAGTTGAATTCTGTGACTAGTGAGGACACAGCCACATATTACTGT'
p69
sg29
g15
sg30
F1
sg31
I1
sg32
Nsg33
F1
sg34
(lp70
sg42
S'seq17'
p71
sbag12
(g13
g14
NtRp72
(dp73
g17
I1
sg18
g19
((lp74
g21
ag22
ag23
ag24
ag17
ag25
atRp75
sg27
S'GGACCTAGCCTCGTGAAACCTTCTCAGACTCTGTCCCTCACCTGTTCTGTCACTGGCGACTCCATCACCAGTGGTTACTGGAACTGGATCCGGAAATTCCCAGGGAATAAACTTGAGTACATGGGGTACATAAGCTACAGTGGTAGCACTTACTACAATCCATCTCTCAAAAGTCGAATCTCCATCACTCGAGACACATCCAAGAACCAGTATTACCTGCAGTTGAATTCTGTGACTACTGAGGACACAGCCACATATTACTGT'
p76
sg29
g15
sg30
F1
sg31
I1
sg32
Nsg33
F1
sg34
(lp77
sg42
S'seq7'
p78
sbag12
(g13
g14
NtRp79
(dp80
g17
I1
sg18
g19
((lp81
g21
ag22
ag23
ag24
ag17
ag25
atRp82
sg27
S'GGACCTAGCCTCGTGAAACCTTCTCAGACTCTGTCCCTCACCTGTTCTGTCACTGGCGACTCCATCACCAGTGGTTACTGGAACTGGATCCGGAAATTCCCAGGGAATAAACTTGAGTACATGGGGTACATAAGCTACAGTGGTAGCACTTACTACAATCCATCTCTCAAAAGTCGAATCTCCATCACTCGAGACACATCCAAGAACTAGTACTACCTGCAGTTGAATTCTGTGACTACTGAGGACACAGCCACATATTACTGT'
p83
sg29
g15
sg30
F1
sg31
I1
sg32
Nsg33
F1
sg34
(lp84
sg42
S'seq1'
p85
sbag12
(g13
g14
NtRp86
(dp87
g17
I1
sg18
g19
((lp88
g21
ag22
ag23
ag24
ag17
ag25
atRp89
sg27
S'GGACCTAGCCTCGTGAAACCTTCTCAGACTCTGTCCCTCACCTGTTCTGTCACTGGCGACTCCATCACCAGTGGTTACTGGAACTGGATCCGGAAATTCCCAGGGAATAAACTTGAGTACATGGGGTACATAAGCTACAGTGGTAGCACTTACTACAATCCATCTCTCAAAAGTCGAATCTCCATCACTCGAGACATATCCAAGAACCAGTACTACCTGCAGTTGAATTCTGTGACTACTGAGGACACAGCCACATATTACTGT'
p90
sg29
g15
sg30
F1
sg31
I1
sg32
Nsg33
F1
sg34
(lp91
sg42
S'seq16'
p92
sbag12
(g13
g14
NtRp93
(dp94
g17
I1
sg18
g19
((lp95
g21
ag22
ag23
ag24
ag17
ag25
atRp96
sg27
S'GGACCTAGCCTCGTGAAACCTTCTCAGACTCTGTCCCTCACCTGTTCTGTCACTGGCGACTCCATCACCAGTGGTTACTGGAACTGGATCCGGAAATTCCCAGGGAATAAACTTGAGTACATGGGGTACATAAGGTACAGTGGTAGCACTTACTACAATCCATCTCTCAAAAGTCGAATCTCCATCACTCGAGACACACCCAAGAACCAGTACTACCTGCAGTTGAATTCTGTGACTACTGAGGACACAGCCACATATTACTGT'
p97
sg29
g15
sg30
F2
sg31
I1
sg32
Nsg33
F1
sg34
(lp98
sg42
S'seq14'
p99
sbag12
(g13
g14
NtRp100
(dp101
g17
I1
sg18
g19
((lp102
g21
ag22
ag23
ag24
ag17
ag25
atRp103
sg27
S'GGACCTAGCCTCGTGAAACCTTCTCAGACTCTGTCCCTCACCTGTTCTGTCACTGGCGACTCCATCACCAGTGGTTACTGGAACTGGATCCGGAAATTCCCAGGGAATAAACTTGAGTGCATGGGGTACATAAGCTACAGTGGTAGCACTTACTACAATCCATCTCTCAAAAGTCGAATCTCCTTCACTCGAGACACATCCAAGAACCAGTACTACCTGCAGTTGAATTCTGTGACTACTGAGGACACAGCCACATATTACTGT'
p104
sg29
g15
sg30
F2
sg31
I1
sg32
Nsg33
F1
sg34
(lp105
sg42
S'seq4'
p106
sbag12
(g13
g14
NtRp107
(dp108
g17
I1
sg18
g19
((lp109
g21
ag22
ag23
ag24
ag17
ag25
atRp110
sg27
S'GGACCTAGCCTCGTGAAACCTTCTCCGACTCTGTCCCTCACCTGTTCTGTCACTGGCGACTCCATCACCAGTGGTTACTGGAACTGGATCCGGAAATTCCCAGGGAATAAACTTGAGTACATGGGGTACATAAGCTACAGTGGTAGCACTTACTACAATCCATCTCTCAAAAGTCGAATCTCCATCACTCGAGACACATCCAAGAACCAGTACTACCTGCAGTTGAATTCTGTGACTACTGAGGACACAGCCACATATTACTGT'
p111
sg29
g15
sg30
F1
sg31
I1
sg32
Nsg33
F1
sg34
(lp112
sg42
S'seq11'
p113
sbag12
(g13
g14
NtRp114
(dp115
g17
I2
sg18
g19
((lp116
g21
ag22
ag23
ag24
ag17
ag25
atRp117
sg27
S'GGACCTAGCCTCGTGAAACCTTCTCAGACTCTGTCCCTCACCTGTTCTGTCACTGGCGACTCCATCACCAGTGGTTACTGGAACTGGATCCGGAAATTCCCAGGGAATAAACTTGAGTACTTGGGGTACATAAGCTACAGTGGTAGCACTTACTACAATCCATCTCTCAAAAGTCGAATCTCCATCACTCGAGACACATCCAAGAACCAGTACTACCTGCAGTTGAATTCTGTGACTACTGAGGACACAGCCACATATTACTGT'
p118
sg29
g15
sg30
F1
sg31
I1
sg32
Nsg33
F1
sg34
(lp119
g12
(g13
g14
NtRp120
(dp121
g17
I1
sg18
g19
((lp122
g21
ag22
ag23
ag24
ag17
ag25
atRp123
sg27
S'GGACCTAGCCTCGTGAAACCTTCTCAGACTCTGTCCCTCACCTGTTCTGTCACTGGCGACTCCATCACCAGTGGTTACTGGAACTGGATCCGGAAATTCCCAGGGAATAAACTTGAGTACTTGGGGAACATAAGCTACAGTGGTAGCACTTACTACAATCCATCTCTCAAAAGTCGAATCTCCATCACTCGAGACACATCCAAGAACCAGTACTACCTGCAGTTGAATTCTGTGACTACTGAGGACACAGCCACATATTACTGT'
p124
sg29
g114
sg30
F1
sg31
I1
sg32
Nsg33
F1
sg34
(lp125
sg42
S'seq8'
p126
sbasg42
S'seq10'
p127
sbag12
(g13
g14
NtRp128
(dp129
g17
I2
sg18
g19
((lp130
g21
ag22
ag23
ag24
ag17
ag25
atRp131
sg27
S'GGACCTAGCCTCGTGAAACCTTCTCAGACTCTGTCCCTCACCTGTTCTGTCACTGGCGACTCCATCACCAGTGGTTACTGGAAGTGGATCCGGAAATTCCCAGGGAATAAACTTGAGTACATGGGGTACATAAGCTACAGTGGTAGCACTTACTACAATCCATCTCTCAAAAGTCGAATCTCCATCACTCGAGACACATCCAAGAACCAGTACTACCTGCAGTTGAATTCTGTGACTACTGAGGACACAGCCACATATTACTGT'
p132
sg29
g15
sg30
F1
sg31
I2
sg32
Nsg33
F1
sg34
(lp133
sg42
S'seq3'
p134
sbag12
(g13
g14
NtRp135
(dp136
g17
I3
sg18
g19
((lp137
g21
ag22
ag23
ag24
ag17
ag25
atRp138
sg27
S'GGACCTAGCCTCGTGAAACCTTCTCAGACTCTGTCCCTCCCCTGTTCTGTCACTGGCGACTCCATCACCAGTGGTTACTGGAACTGGATCCGGAAATTCCCAGGGAATAAACTTGAGTACATGGGGTACATAAGCTACAGTGGTAGCACTTACTACAATCCATCTCTCAAAAGTCGAATCTCCATCACTCGAGACACATCCAAGAACCAGTACTACCTGCAGTTGAATTCTGTGACTACTGAGGACACAGCCACATATTACTGT'
p139
sg29
g15
sg30
F1
sg31
I3
sg32
Nsg33
F1
sg34
(lp140
sg42
S'seq5'
p141
sbag12
(g13
g14
NtRp142
(dp143
g17
I4
sg18
g19
((lp144
g21
ag22
ag23
ag24
ag17
ag25
atRp145
sg27
S'GGACCTAGCCTCGTGAAACCTTCTCAGACTCTGTCCCTCACCTGTTCTGTCACTGGCGACTCCATCACCAGTGGTTACTGGAACTGGATCCGGAAATTCCCAGAGAATAAACTTGAGTACATGGGGTACATAAGCTACAGTGGTAGCACTTACTACAATCCATCTCTCAAAAGTCGAATCTCCATCACTCGAGACACATCCAAGAACCAGTACTACCTGCAGTTGAATTCTGTGACTACTGAGGACACAGCCACATATTACTGT'
p146
sg29
g15
sg30
F1
sg31
I3
sg32
Nsg33
F1
sg34
(lp147
g12
(g13
g14
NtRp148
(dp149
g17
I1
sg18
g19
((lp150
g21
ag22
ag23
ag24
ag17
ag25
atRp151
sg27
S'GGACCTAGCCTCGTGAAACCTTCTCAGACTCTGTCCCTCACCTGTTCTGTCACTGGCGACTCCATCACCAGTGGTTACTGGAACTGGATCCGGAAATTCCCAGAGAATAAACTTGAGTACATGGGGTACATAAGTTACAGTGGTAGCACTTACTACAATCCATCTCTCAAAAGTCGAATCTCCATCACTCGAGACACATCCAAGAACCAGTACTACCTGCAGTTGAATTCTGTGACTACTGAGGACACAGCCACATATTACTGT'
p152
sg29
g142
sg30
F1
sg31
I1
sg32
Nsg33
F1
sg34
(lp153
sg42
S'seq2'
p154
sbasg42
S'seq13'
p155
sbag12
(g13
g14
NtRp156
(dp157
g17
I4
sg18
g19
((lp158
g21
ag22
ag23
ag24
ag17
ag25
atRp159
sg27
S'GGACCTAGCCTCGTGAAACCTTCTCAGACTCTGTCCCTCACCTGTTCTGTCACTGGCGACTCCATCACCAGTGGTTACTGGAACTGGATCCGGAAATTCCCAGGGAATAAACTTGATTACATGGGGTACATAAGCTACAGTGGTAGCACTTACTACAATCCATCTCTCAAAAGTCGAATCTCCATCACTCGAGACACATCCAAGAACCAGTACTACCTGCAGTTGGATTCTGTGACTACTGAGGACACAGCCACATATTACTGT'
p160
sg29
g15
sg30
F2
sg31
I4
sg32
Nsg33
F1
sg34
(lp161
sg42
S'seq12'
p162
sbasg42
S'naive'
p163
sbsg4
Nsg7
Nsg6
I2
sbtp164
sb.