(i__main__
CollapsedForest
p1
(dp2
S'n_trees'
p3
I3
sS'frame'
p4
NsS'tree'
p5
NsS'_nparams'
p6
I2
sS'params'
p7
(lp8
F0.48780489694028795
aF0.78557167558362773
asS'forest'
p9
((i__main__
CollapsedTree
p10
(dp11
g5
ccopy_reg
_reconstructor
p12
(cete3.coretype.tree
TreeNode
p13
c__builtin__
object
p14
NtRp15
(dp16
S'partition'
p17
I20
sS'features'
p18
c__builtin__
set
p19
((lp20
S'dist'
p21
aS'name'
p22
aS'sequence'
p23
aS'support'
p24
ag17
aS'frequency'
p25
atRp26
sS'sequence'
p27
S'GAGGTGGAGCTGATAGAGCCCACAGAGGACCTGAGACAACCTGGGAAGTTCCTGAGACTCTCCTGTGTAGCCTCTAGATTCGCCTTCAGTAGCTTCTGAATGAGCCCAGTTCACCAGTCTGCAGGCAAGGGGCTGGAGTGAGTAATAGATATAAAAGATGATGGAAGTCAGATACACCATGCAGACTCTGTGAAGGGCAGATTCTCCATCTCCAAAGACAATGCTAAGAACTCTCTGTATCTGCAAATGAACAGTCAGAGAACTGAGGACATGGCTGTGTATGGCTGTACATAAGGTTGGT--ATAACTGGAACAAC--GCTGAATACTTCCAGCACTGGGGCCAGGGCACCCTGGTCACCGTCTCCTCAG'
p28
sS'_up'
p29
NsS'_dist'
p30
F0
sS'frequency'
p31
I0
sS'_img_style'
p32
NsS'_support'
p33
F1
sS'_children'
p34
(lp35
g12
(g13
g14
NtRp36
(dp37
g17
I20
sg18
g19
((lp38
g21
ag22
ag23
ag24
ag17
ag25
atRp39
sg27
S'GAGGTGGAGCTGATAGAGCCCACAGAGGACCTGAGACAACCTGGGAAGTTCCTGAGACTCTCCTGTGTAGCCTCTAGATTCGCCTTCAGTAGCTTCTGAATGAGCCCAGTTCACCAGTCTGCAGGCAAGGGGCTGGAGTGAGTAATAGATATAAAAGATGATGGAAGTCAGATACACCATGCAGACTCTGTGAAGGGCAGATTCTCCATCTCCAAAGACAATGCTAAGAACTCTCTGTATCTGCAAATGAACAGTCAGAGAACTGAGGACATGGCTGTGTATGGCTGTACATAAGGTTGGT--ATAACTGGAACAACAAGCTGAATACTTCCAGCACTGGGGCCAGGGCACCCTGGTCACCGTCTCCTCAG'
p40
sg29
g15
sg30
F2
sg31
I0
sg32
Nsg33
F1
sg34
(lp41
g12
(g13
g14
NtRp42
(dp43
g17
I6
sg18
g19
((lp44
g21
ag22
ag23
ag24
ag17
ag25
atRp45
sg27
S'GAGGTGGAGCTGATAGAGCCCACAGAGGACCTGAGACAACCTGGGAAGTTCCTGAGACTCTCCTGTGTAGCCTCTAGATTCGCCTTCAGTAGCTTCTGAATGAGCCCAGTTCACCAGTCTGCAGGCAAGGGGCTGGAGTGAGTAATAGATATAAAAGATGATGGAAGTCAGATACACCATGCAGACTCTGTGAAGGGCAGATTCTCCATCTCCAAAGACAATGCTAAGAACTCTCTGTATCTGCAAATGAACAGTCAGAGAACTGAGGACATGGCTGTGTATGGCTGTACATAAGGTTCGGGTATAACTGGAACAACATGCTGAATACTTCCAGCACTGGGGCCAGGGCACCCTGGTCACCGTCTCCTCAG'
p46
sg29
g36
sg30
F5
sg31
I1
sg32
Nsg33
F1
sg34
(lp47
g12
(g13
g14
NtRp48
(dp49
g17
I5
sg18
g19
((lp50
g21
ag22
ag23
ag24
ag17
ag25
atRp51
sg27
S'GAGGTGGAGCTGATAGAGCCCACAGAGGACCTGAGACAACCTGGGAAGTTCCTGAGACTCTCCTGTGTAGCCTCTAGATTCGCCTTCAGTAGCTTCTGAATGAGCCCAGTTCACCAGTCTGCAGGCAAGGGGCTGGAGTGAGTAATAGATATAAAAGATGATGGAAGTCAGATACACCATGCAGACTCTGTGAAGGGCAGATTCTCCATCTCCAAAGACAATGCTAAGAACTCTCTGTATCTGCAAATGAACAGTCAGAGAACTGAGGACATGGCTGTGTAAGGCTGTACATAAGGTTCGGGTATAACTGGAACAACATGCTGAATACTTCCAGCACTGGGGCCAGGGCACCCAGGTCACCGTCTCCTCAG'
p52
sg29
g42
sg30
F2
sg31
I0
sg32
Nsg33
F1
sg34
(lp53
g12
(g13
g14
NtRp54
(dp55
g17
I2
sg18
g19
((lp56
g21
ag22
ag23
ag24
ag17
ag25
atRp57
sg27
S'GAGGTGGAGCCGAGAAAGCCCACAGAGTACCTGAGACACCCTGGGAAGTTCCTGAGACTCTCCTGTGTAGCCTCTAGATTCGCCGTCAGTAGCTTCTGAATGAGCCCAGTTCACCAGTCTACAGGCAAGGGGCTGGAGTGAGTAATAGATATAAAAGATGATGGAAGACAGATACACCATACAGACTCTGTGAAGGGCAGATTCGCCATCTCCAAAGACAATGCTAAGAACTCTCTGTATCTGCAAATGAACATTTAGATAACTGAGTACATGGCTCTGTAAGGCTGTACATAAGTTTCGGGTATAACTCGAACAACATGCTGAATATTTCCAGCACTGGGTCCAGGGCACCCAGGTCACCGTCTCCTCAG'
p58
sg29
g48
sg30
F19
sg31
I0
sg32
Nsg33
F1
sg34
(lp59
g12
(g13
g14
NtRp60
(dp61
g17
I1
sg18
g19
((lp62
g21
ag22
ag23
ag24
ag17
ag25
atRp63
sg27
S'GAGGTGGAGCCGAGAAAGCCCAAAGAGTACTTGAGACACCGTGGGAAGTTCCTGAGACTCTCCTGTGTAGCATCTAGATCCGCCGTCAGTAGCTTCTGAATGAGCCCAGTTCACCAGTCTACAGGCAAGGGGCTGGAGTGAGTAATAGATATAAAAGATGATGGAAGACAGATACACCATACAGACTCTGTCAACGGCAGATTCGCCATCTCCAAAGATAATGCTAAGAACTCTCTGTATCTGCAAATGGACATTTAGATAACTGAGTACATTGATCTGTAACGCTGTACATAAGTTTCGGGTATACCTCGAACAACATGCTGAATATTTCCAGCACTGGGTCCAGGGCACCAAGGTCACCCTCTCCTCAG'
p64
sg29
g54
sg30
F15
sg31
I1
sg32
Nsg33
F1
sg34
(lp65
sS'name'
p66
S'seq8'
p67
sbag12
(g13
g14
NtRp68
(dp69
g17
I1
sg18
g19
((lp70
g21
ag22
ag23
ag24
ag17
ag25
atRp71
sg27
S'GAGGTGGAGCCGAGAAAGCCCACAGAGTACCTGAGACACCCTGGGAAGTTCCTGAGACTCTCCTGTGTAGCCTCTAGATTCGCCGTCAGTAGCTTCTGAATGAGCCCAGTTCACCAGTCTACAGGCAAGGGGCTGGAGTGAGTAATAGATATAAAAGATGATGGAAGGCAGATACACCATACAGACTCTGTGAAGGGCAGATTCGCCATCTCCAAAGACAATGCTAAGAACTCTCTGTATCTGCAAATGAACATTTAGATAACTGAGTACATGGCTCTGTAAGGCTGTACATAAGTTTCGGGTATAACTCGAACAACATGCTGAATATTTCCAGCACTGGGTCCAGGGCACCCAGGTCACCGTCTCCTCAG'
p72
sg29
g54
sg30
F1
sg31
I1
sg32
Nsg33
F1
sg34
(lp73
sg66
S'seq19'
p74
sbasg66
S'17'
p75
sbag12
(g13
g14
NtRp76
(dp77
g17
I3
sg18
g19
((lp78
g21
ag22
ag23
ag24
ag17
ag25
atRp79
sg27
S'GAGGTGGAGCTGATAGTGCCCACAGAGGACCCGAGACAACCTGGGAAGTTCCTGAGACTCTCCTGTGTAGCCTCTAGACTCGCCTTCAGTAGCTTCTGAATGAGCCCAGTTCACCAGTCTGAAGGCGAGGAGCTGGAGTGAGTAATAGATATAAAAGATGATGGAAGTCAGATACACCATGCAGACTCTGTGAAGGGCAGATTCTCCATCTCAAAAGACAATGCTAAGAACTCTCTGTATCTGCAAATGAACAGTCAGAGAACTGAGGAAATGGCTGTGTAAGGCTGTACATAAGGTTCGGGTATAAATGGAACAGCATGCTGAATACTTCCAGCACTGGGGCCAGGGCACCCCGGTCGCCGTCTCCTCAG'
p80
sg29
g48
sg30
F12
sg31
I1
sg32
Nsg33
F1
sg34
(lp81
g12
(g13
g14
NtRp82
(dp83
g17
I2
sg18
g19
((lp84
g21
ag22
ag23
ag24
ag17
ag25
atRp85
sg27
S'GAGGTGAAGCTGATAGTGCCTACAGAGGACCCGAGACAACCTGGGAAGTTTATGAGACTCTCCTGTGTAGCCTATAGACTAGCCTTCAGTTGCTTCTGAATGAGGCCAGTTCACCAGTCTGAAGGCGAGGAGCTGGAGTGAGTAATAGATATAAAAGATGATGGAAGTCAGATACACCATGCAGACTCTGTGAAGGGCAGATTCTCCATCTCAAAACAAAATGCTAAGAACTCTCTGTATCTGCAAATGAACAGTCGGAGAACTGAGGAAGTGGCTGTGTAAGGCTGTACATAAGGTTCGGATATAAATGGAACAGCATGCTGAATACTTCCAGCACTGGGGCCAGGGCACCCCGGTCGCCGTCTCCTCAG'
p86
sg29
g76
sg30
F13
sg31
I0
sg32
Nsg33
F1
sg34
(lp87
g12
(g13
g14
NtRp88
(dp89
g17
I1
sg18
g19
((lp90
g21
ag22
ag23
ag24
ag17
ag25
atRp91
sg27
S'GAGGTGTAGCTGATAGTGCCTACAGAGGACCCGAGACAACCTGGGAAGTTTATGAGACTCTCCTGTGTAGCCTATAGACTAGCCTTCAGTTGCTTCTGAATGAGGCCAGTTCACCAGTCTGAAGGCGAGGAGCTGGAGTGAGTAATAGATATAAAAGATGATGGAAGTCAGATACACCATGCAGACTCTGTGAAGGGCAGATTCTCCATCTCAAAACAAAATGCTAAGAACTCTCTGTATCTGCAAATGAACAGTCGGAGAACTGAGGAAGTGGCTGTGTAAGGCTGTACATAAGGTTCGGATATAAATGGAACAGCATGCTGAATACTTCCAGCACTGGGGCCAGGGCACCCCGGTCGCCGTCTCCTCAG'
p92
sg29
g82
sg30
F1
sg31
I1
sg32
Nsg33
F1
sg34
(lp93
sg66
S'seq9'
p94
sbag12
(g13
g14
NtRp95
(dp96
g17
I1
sg18
g19
((lp97
g21
ag22
ag23
ag24
ag17
ag25
atRp98
sg27
S'GAGGTTAAGCTGATAGTGCCTACAGAGGACCAGAGACAACCTGGGTAGTTTATGAGACTCTCCTGTGTAGCCTATAGACTAGCCTTCAGTTGCTTCTGAATGAGGCCAGTTCACTAGTCTGAAGGCAAGGAGCTGGAGTGAGTAATAGATATAAAAGATGACGGCAGTCATATACACCTTGCAGACTCTGTGAAGGGCAGATTCTCCATCTCAAAACCAAATGCTAAGAACTCTCTGTATCTGCAAATGAACAGTCGGAGGACTGAGGAAGTGGCTGAGTAAGGCTGTACGTAAGGTTCGGATATAAATGGAACAGCATGCTGCATACTTCCAGCACTGGGGCCAGGCCATCCCGGTCGCCGTCTTCTCAT'
p99
sg29
g82
sg30
F18
sg31
I1
sg32
Nsg33
F1
sg34
(lp100
sg66
S'seq6'
p101
sbasg66
S'8'
sbasg66
S'seq7'
p102
sbasg66
S'7'
sbasg66
S'seq14'
p103
sbag12
(g13
g14
NtRp104
(dp105
g17
I14
sg18
g19
((lp106
g21
ag22
ag23
ag24
ag17
ag25
atRp107
sg27
S'GAGGTGGAGCTGATAGAGCCCACAGAGGACCTGAGACAACCTGGGAAGTTCCTGAGACTCTCCTGTGTAGCCTCTAGATTCGCCTTCAGTAGCTTCTGAATGAGCCCAGTTCACCAGTCTGCAGGCAAGGGGCTGGAGTGAGTAATAGATATAAAAGATGATGGAAGTCAGATACACCATGCAGACTCTGTGAAGGGCAGATTCTCCATCTCCAAAGACAATGCTAAGAACTCTCTGTATCTGCAAATGAACAGTCAGAGAACTGAGGACATGGCTGTGTATGGCTGTACATAAGGTTGGT--ATAACTGGAACAACACGCTGAATACTTCCAGCACTGGGGCCAGGGCACCCTGGTCACCGTCTCCTCAG'
p108
sg29
g36
sg30
F1
sg31
I0
sg32
Nsg33
F1
sg34
(lp109
g12
(g13
g14
NtRp110
(dp111
g17
I7
sg18
g19
((lp112
g21
ag22
ag23
ag24
ag17
ag25
atRp113
sg27
S'GAGGTGGAGCTGATAGAGCCCACAGAGGACCTGAGACAACCTGGGAAGTTCCTGAGACTCTCCTGTGTAGCCTCTAGATTCGCCTTCAGTAGCTTCTGAATGAGCCCAGTTCACCAGTCTGCAGGCAAGGGGCTGGAGTGAGTAATAGATATAAAAGATGATGGAAGTCAGATACACCATGCAGACTCTGTGAAGGGCAGATTCTCCATCTCCAAAGACAATGCTAAGAACTCTCTGTATCTGCAAATGAACAGTCAGAGAACTGAGGACATGGCTGTGTATGGCTGTACATAAGGTATAA--ATAG------TACAACGCTGAATACTTCCAGCACTGGGGCCAGGGCACCCTGGTCACCGTCTCCTCAG'
p114
sg29
g104
sg30
F14
sg31
I0
sg32
Nsg33
F1
sg34
(lp115
g12
(g13
g14
NtRp116
(dp117
g17
I1
sg18
g19
((lp118
g21
ag22
ag23
ag24
ag17
ag25
atRp119
sg27
S'GAGGTGGAGCTGATAGAGCCCACAGAGGACCTGAGACAACCTGGGAAGTTCCTGAGACTCTCCTGTGTAGCCTCTAGATTCGCCTTCAGTAGCTTCTGAATGAGCCCAGTTCACCAGTCTGCAGGCAAGGGGCTGGAGTGAGTAATAGATATAAAAGATGATGGAAGTCAGATACACCATGCAGACTCTGTGAAGGGCAGATTCTCCATCTCCAAAGACAATGCTAAGAACTCTCTGTATCTGCAAATGAACAGTCAGAGAACTGAGGACATGGCTGTGTATGGCTGTACATAAGGTATAA--CTG------GAACAACGCTGAATACTTCCAGCACTGGGGCCAGGGCACCCTGGTCACCGTCTCCTCAG'
p120
sg29
g110
sg30
F5
sg31
I1
sg32
Nsg33
F1
sg34
(lp121
sg66
S'seq13'
p122
sbag12
(g13
g14
NtRp123
(dp124
g17
I6
sg18
g19
((lp125
g21
ag22
ag23
ag24
ag17
ag25
atRp126
sg27
S'GAGGTGGAGCTGATAGAGGCCACAGAGGACCTGAGACGACCTGGGAAGTTCCTGAGACTCTCCTGTGTAGACTCTAGATTCGCCTTCAGTAGCTTCTGAATGAGCCCAGTTCACCACTCTGCAGGCAAGGGGCTGGAGTGAGTAATAGATATAAAAGAAGATGGAAGTCAGATACACCATGCAGACTCTGTGAAGGGCAGATTCTCCATCTCAAAAGACAATGCTAAGAACTCTCTGTATCTGCAACTAAACAGTCAGATAACTAAGGACATGGCTGTGTATGGCTGTACATAAGGTATAACTGGAG-------ACAACGCTCAATACTTCCAGCACTGGGGCCAGGGCACCCTGGTCACCGTCTCCTCAG'
p127
sg29
g110
sg30
F16
sg31
I0
sg32
Nsg33
F1
sg34
(lp128
g12
(g13
g14
NtRp129
(dp130
g17
I1
sg18
g19
((lp131
g21
ag22
ag23
ag24
ag17
ag25
atRp132
sg27
S'GAGGTGGAGCTGATAGAGGCCACAGAGGACCTGAGACGACCTGGGATGTTCCTGAGACTCTCCTGTGTAGACTCTAGATTCGCCTTCAGTAGCTTCTGAATGAGCCCAGTTCACCACTCTGCAGGCAAGGGGCTGGAGTGAGTAATAGATATAAAAGAAGATGGAAGTCAGATACACCATGCAGACTCTGTGAAGGGCAGATTCTCCATCTCAAAAGACAATGCTAAGAACTCTCTGTATCTGCAACTAAACAGTCAGATAACTAAGGACATGGCTGTGTATGGCTGTACATAAGGTATAACTGGA--------ACAACGCTCAATACTTCCAGCACTGGGGCCAGGGCACCCTGGTCACCGTCTCCTCAG'
p133
sg29
g123
sg30
F2
sg31
I1
sg32
Nsg33
F1
sg34
(lp134
sg66
S'seq18'
p135
sbag12
(g13
g14
NtRp136
(dp137
g17
I5
sg18
g19
((lp138
g21
ag22
ag23
ag24
ag17
ag25
atRp139
sg27
S'GAGGTGGAGCTGATAGAGGCCACAGAGGACCTGAGACGACCTGGGAAGTTCCTGAGACTCTCCTGTGTAGACTCTAGATTCGCCTTCAGTAGCTTCTGAATGAGCCCAGTTCACCACTCTGCAGGCAAGGGGCTGGAGTGAGTAATAGATATAAAAGAAGATGGAAGTCAGATACACCATGCAGACTCTGTGAAGGGCAGATTCTCCATCTCAAAAGACAATGCTAAGAACTCTCTGTATCTGCAACTAAACAGTCAGATAACTAAGGACATGGCTGTGTATGGCTGTACATAAGGTATAACTGGAAC--------AACGCTCAATACTTCCAGCACTGGGGCCAGGGCACCCTGGTCACCGTCTCCTCAG'
p140
sg29
g123
sg30
F4
sg31
I0
sg32
Nsg33
F1
sg34
(lp141
g12
(g13
g14
NtRp142
(dp143
g17
I2
sg18
g19
((lp144
g21
ag22
ag23
ag24
ag17
ag25
atRp145
sg27
S'GAGGTGCAGCTGATAGAGGACACAGAAGACCTGAGACGACCTGGGATGTTCCTGAGACTCTCCTGTGTAGACTCTAGATGCGCCTTCAGTAGCTTCTGAATGAGCCCAGTTCACCACTCTACAGGCAAGGGGCTGGAGTGAGTAATAGATATAAAAGCAGATGGAAGTCAGATACACCATGCAGACTCTGTGAAGGGTAGATTCTACATCTCAAAAGACAATGCTAAGAACTCTCTGTATCTGCACCTAAACAGTCAGATAACTAAGGACATGGCTGTGTATGGCTGTACATCAGGTATAACTGGAAC--------AACGCTCAATACTTCCAGCACGGGCGACAGGGCACCCTGGTCACCGTCTCCTCAG'
p146
sg29
g136
sg30
F14
sg31
I0
sg32
Nsg33
F1
sg34
(lp147
g12
(g13
g14
NtRp148
(dp149
g17
I1
sg18
g19
((lp150
g21
ag22
ag23
ag24
ag17
ag25
atRp151
sg27
S'GAGGTGCAGCTGATAGAGGACACAGAAGACCTGAGACGACCTGGGATGTTCCTGAGACTCTCCTGTGTAGACTCTAGATGCGCCTTCAGTAGCTTCTGAATGAGCCCAGTTCACCACTCTACAGGCAAGGGGCTGGAGTGAGTAATAGATATAAAAGCAGATGGAAGTCAGATACACCATGCAGACTCTGTGAAGGGTAGATTCTACATCTCAAAAGACAATGCTAAGAACTCTCTGTATCTGCAGCTAAACAGTCAGATAACTAAGGACATGGCTGTGTATGGCTGTACATCAGGTATAACTGGAAC--------AACGCTCAATACTTCCAGCACGGGCGACAGGGCACCCTGGTCACCGTCTCCTCAG'
p152
sg29
g142
sg30
F1
sg31
I1
sg32
Nsg33
F1
sg34
(lp153
sg66
S'seq17'
p154
sbag12
(g13
g14
NtRp155
(dp156
g17
I1
sg18
g19
((lp157
g21
ag22
ag23
ag24
ag17
ag25
atRp158
sg27
S'GAGGTGCAGCTGATCGTGGACACAGAAGACCTGAGACGACCTGGGATGTTCCGGAGACTCTCCTGTGTAGACTCTAGATGCGCCTTCAGTAGCTTCTGAATGAGCCCAGTTCACCACTCTACAGGGAAGGGGCTGGAGTGAGTAATAGATATAAAAGCAGATGGAAGTCAGATACACCATACAGACTCTGTGAAGGGTAGATTATACATCTCAAAAGACAATGCTAAGAACTCTCTGTATCTGCACCTAAACAGTCAGATAACTAAGGACATGGTTGTGTATGGCTGTACATCAGGTATAACTGGAAA--------AACGCTCAATACTTCCAGCACGGGCGACAGAGCACCCTGGTCACGGTCTCCTCAG'
p159
sg29
g142
sg30
F10
sg31
I1
sg32
Nsg33
F1
sg34
(lp160
sg66
S'seq20'
p161
sbasg66
S'18'
p162
sbag12
(g13
g14
NtRp163
(dp164
g17
I3
sg18
g19
((lp165
g21
ag22
ag23
ag24
ag17
ag25
atRp166
sg27
S'GAGGTGGAGCTGATAGAAGCCACAGAGCACCTGAGACGACCTGGGAAGTTCCTGAGTCTCTCCTGTGTAGAGTCTAGATTCGACTTCAGTAGCTTCTGAATGAGCCCAGTTCACCACGCTGCCGGCAAGGGGCTGGCGTGAGTTATAGATATAATAGAACATGGAAGTCTGATACACCATGCAGACTCTGCGAAGGGCAGATGCTCCATCTCAAAAGACAATGCTAAGAACTCTCTGTCTCTGCAACTAAACAGTCAGATAACTAAGGACATGGCTGTGTATGGCTGTACATATGGTATAACTGGAAC--------AACGCTCAATACTTCCAGCACTGGGGCCAGGGCACCCTGGTCACCGTCACCTCAC'
p167
sg29
g136
sg30
F18
sg31
I1
sg32
Nsg33
F1
sg34
(lp168
g12
(g13
g14
NtRp169
(dp170
g17
I1
sg18
g19
((lp171
g21
ag22
ag23
ag24
ag17
ag25
atRp172
sg27
S'GAGGTGGAGCCGAAAGAAGCCACAGAGCACCTGAGACGACCTGGGAAGTTCCTGAGTCTCTCCTGTGTAGAGTCCAAATTCGACTTCAGTAGCTTCTGAATGAGCCCAGTGCACCACGCTGCCGGCAAGGAGCTGGCGTGCGTTATAGATATATTAGAACATGGAAGTCGGATACACCATGCAGACTCTGCGAAGGGCAGGTGCTCGATCTCAAAAGACAATGCTAAGAACTCTCTGTCTCTGCAACTAAGCAGTCAGATAACTAAGGACATGGCTGTCTATGGCTGCACATATGGTATAACTGGAAC--------AACGCTCAATACTTCCAGCACTGGGGCCAGGGCACCCTGGTCACCGTCACATCAC'
p173
sg29
g163
sg30
F15
sg31
I1
sg32
Nsg33
F1
sg34
(lp174
sg66
S'seq16'
p175
sbag12
(g13
g14
NtRp176
(dp177
g17
I1
sg18
g19
((lp178
g21
ag22
ag23
ag24
ag17
ag25
atRp179
sg27
S'GAGGTGGAGCTGATAGAAGCGACAGAGCACCTGAGACGACCTGGGAGAATCCTAAGTCTCTCCTGTGTAGAGTCTAGATTCGACTGAAGTAACTTCTGAATGAGCCCAGTTCACCACGCTGCCGACAAGGGGCTGGCGTGAGTTATTGATATAATAGTACATGGAAGTCTGATACACCATGCAGACGCTGCGAAGGGCAGATGCTCCATCTCAAAAGACAATGCTAAGAACTCTCTTTGTCTGCAACTACACAGTCTGATAACTAAGGACATGCCTGTGTATGGCTGTACATATGGTATAACTGGAAC--------AACGCTCAATACTTCCCGCACTGGGGCCAGGGCACCCTGGTCCCCGTCACCTCAC'
p180
sg29
g163
sg30
F19
sg31
I1
sg32
Nsg33
F1
sg34
(lp181
sg66
S'seq5'
p182
sbasg66
S'seq1'
p183
sbasg66
S'15'
p184
sbasg66
S'16'
p185
sbasg66
S'12'
p186
sbag12
(g13
g14
NtRp187
(dp188
g17
I7
sg18
g19
((lp189
g21
ag22
ag23
ag24
ag17
ag25
atRp190
sg27
S'GAGGTGGAGCTGATAGAGCCCACAGAGGACCTGAGACAACCTGGGAAGTTCCTGAGACTCTCCTGTGTAGCCTCTAGATTCGCCTTCAGTAGCTTCTGAATGAGCCCAGTTCACCAGTCTGCAGGCAAGGGGCTGGAGTGAGTAATAGATATAAAAGATGATGGAAGTCAGATACACCATGCAGACTCTGTGAAGGGCAGATTCTCCATCTCCAAAGACAATGCTAAGAACTCTCTGTATCTGCAAATGAACAGTCAGAGAACTGAGGACATGGCTGTGTATGGCTGTACATAAGGTTGGT--ATAACTGGAACAACCCGCTGAATACTTCCAGCACTGGGGCCAGGGCACCCTGGTCACCGTCTCCTCAG'
p191
sg29
g104
sg30
F1
sg31
I1
sg32
Nsg33
F1
sg34
(lp192
g12
(g13
g14
NtRp193
(dp194
g17
I6
sg18
g19
((lp195
g21
ag22
ag23
ag24
ag17
ag25
atRp196
sg27
S'GAGGTGGAGCTGATAGAGCCCACAGAGGACCTGAGACAACCTGGGAAGTTCCTGAGACTCTCCTGTGTAGCCTCTAGATTCGCCTTCAGTAGCTTCTGAATGAGCCCAGTTCACCAGTCTGCAGGCAAGGGGCTGGAGTGAATAATAGATATAAAAGATGATGGAAGTCAGATACACCATGCAGACTCTGTGAAGGGCAGATTCTCCATCTCCAAAGACAATGCTAAGAACTCTCTGTATCTGCAAATGAACAGTCAGAGAACTGAGGACATGGCTGTGTATGGCTGTACATAAGGTTGGTA--TAACTGGAACAACCCGCTGAATACTTCCAGCACTGGGGCCAGGGCACCCTGGTCACCGTCTCCTCAG'
p197
sg29
g187
sg30
F3
sg31
I0
sg32
Nsg33
F1
sg34
(lp198
g12
(g13
g14
NtRp199
(dp200
g17
I1
sg18
g19
((lp201
g21
ag22
ag23
ag24
ag17
ag25
atRp202
sg27
S'GAGGTTGAGCTCATAGAGCCCACAGAGGAACTGAGACAACCTGGGAAGTTCCTGAGACTCTCCTGTGTAGCCTCTAGGTTCGCCTTCAGTGGGTTCTGAATGAGCCCAGTTCACCAGTCTGCAAGCAAGGGGCTGGAGTGAATAATAGATATAAAAGATGATGGCAGTCAGGTACACCATGCAGACTCTGTGAAGGGCAGATTCTCCATCCCCAAAGACAACGCTAAGAACTCTCTGTATCTGCAAATGAACAGTCAGAGAAGTGAGGACATGGCTGTGTACGGCTGTACATAAGGTTGGTA--TAACTGGAACAACCCGCTGAATACTTCCAGCACTGGGGCCAGGGCACCCTGGTCACCGTCTCCTCAG'
p203
sg29
g193
sg30
F13
sg31
I1
sg32
Nsg33
F1
sg34
(lp204
sg66
S'seq4'
p205
sbag12
(g13
g14
NtRp206
(dp207
g17
I5
sg18
g19
((lp208
g21
ag22
ag23
ag24
ag17
ag25
atRp209
sg27
S'GAGATGGAGCTGATAAAGCCCACAGAGGACCTGAGACAACCTGGGAAGTTCCTGAGACTCTCCTGTGTAGCCTCTAGATTCGCCTTCAGTAGCTTCTGTATGAGCCCAGTTAATCAGTCTGCAGTCAAGGGGCTGGAGTGATTAATAGATATAAAAGATGATGGAAGTCAGATACTCCACGCATACTCTGTGAAGGGCAGATTCTCCGTCTCCAAAGAAAATGCTAAGAACTCTCTGTATCTGCAAATGAACATTCAGAGAACTGAGGACATGGCTGTGTATGACTGTACATAAGGTTGGTA--TAACTGGAGCAACCCGCTGAATACTCCCAGCACTGGGGCAAGGGCACCCAGGTCACCGTCTCCTCAG'
p210
sg29
g193
sg30
F18
sg31
I0
sg32
Nsg33
F1
sg34
(lp211
g12
(g13
g14
NtRp212
(dp213
g17
I1
sg18
g19
((lp214
g21
ag22
ag23
ag24
ag17
ag25
atRp215
sg27
S'GAGATGGAGCTGATAAAGCCCACAGAGGACGTGAGACAACCTGTGCAGTTCCTGAGACGATCCGGTGTAGCCTCTAGATTCGCCTTCAGTAGCCCCAGTATGAGCCCAGTTACTCAGTCTGCAGTCAAGGGGCTGGAGAGATTAATAGATATAAAAGATGATGGAAGTCAGATACTCCACGCATACTCTGTGAAGGGCAGATTCTCCGTCTCCAAAGAAAATGCTAAGAACTCGCGGTATCTGCAAATGAACATTCAGAAAACTGAGGACATGGCTGTGTATGACTGTACGTAAGGTTGGTA--TAACTGTAGCAACCCGCTGAATACTCCCAGCTCTGGGGCAAGGGCACCCAGGTCACTGTCTCCTCAG'
p216
sg29
g206
sg30
F18
sg31
I1
sg32
Nsg33
F1
sg34
(lp217
sg66
S'seq10'
p218
sbag12
(g13
g14
NtRp219
(dp220
g17
I4
sg18
g19
((lp221
g21
ag22
ag23
ag24
ag17
ag25
atRp222
sg27
S'GAGATGGAGCTGATAAAGCCCACAGAGGACCTGAGACAACCTGGGAAGTTCCTGAGACTCTCCTGTGTAGCCTCTAGATTCGCCTTCAGTAGCTTCTGTATGAGCCCAGTTAATCAGTCTGCAGTCAAGGGGCTGGAGTCATTAATAGATATAAAAGATGATGGAAGTCAGATACTCCACGCATACTCTGTGAAGGGCAGATTCTCCGTCTCCAAAGAAAATGCTAAGAACTCTCTGTATCTGCAAATGAACATTCAGAGAACTGAGGACATGGCTGTGTATGACTGTACATAAGGTTGGTA--TAACTGGAGCAACCCGCTGAATACTCCCAGCACTGGGGCAAGGGCACCCAGGTCACCGTCTCCTCAG'
p223
sg29
g206
sg30
F1
sg31
I1
sg32
Nsg33
F1
sg34
(lp224
g12
(g13
g14
NtRp225
(dp226
g17
I3
sg18
g19
((lp227
g21
ag22
ag23
ag24
ag17
ag25
atRp228
sg27
S'GAGATGGAGCAAACAAAGCCCACAGAGGACCTGAGACAACCAGGGAAGTTCCTGAGACTCTCCTGTGTAGCGTCTAGATTCGCCTTCAGTAGCTTCTGTATGAGCCCAGTTAATCAGTCTGCAGTCAAGGGGCTGGAGTCATTAATAGATATAAAAGATGATGGAAGTCAGATTCTCCACGCATACTCTGTGAAGGGCAGATTCTCCGTCTCCAACGAAAATGCCAAGAACTCTCTGTATCCGCAAATGAACATACAGAGAACTGAGGACATGGCTGTGTAGGACTGTATATTAGGTTGGTA--TAACTGGAGCAACCCGCTGAATACTCCCAGCACTGGGGCAAGGGCACCCCGGTCACCGGCTCCTCAG'
p229
sg29
g219
sg30
F15
sg31
I1
sg32
Nsg33
F1
sg34
(lp230
g12
(g13
g14
NtRp231
(dp232
g17
I2
sg18
g19
((lp233
g21
ag22
ag23
ag24
ag17
ag25
atRp234
sg27
S'GAGATGGAGCAAACAAAGCCCACAGAGGACCTGAGACAACCAGGGAAGTTCCTGAGACTCTCCAGTGTAGCGTCTAGATTCGCCTTCAGTAGCTTCTGTATGAGCCCAGTGAATCAGTCTGCAGTCAAGGGGCTGGAGTAATTAATAGATATAAAAGATGATGGAAGTCAGATTCTCCACGCATACTCTGTGAAGCGCAGATTCTCCGTCTCCAACGAAAATGCCAAGAACTCTCTGTATCCGCAAATGAACCTACATAGAACTGAGGACATGGCTGTGTAGGAGTGTATATTAGATTGGTA--TAACTGGAGCAACCCGCTGAATACTCCCAGCACTGGGGCAAGGGCACACCGCTCACCGGCTCCTCAG'
p235
sg29
g225
sg30
F10
sg31
I0
sg32
Nsg33
F1
sg34
(lp236
g12
(g13
g14
NtRp237
(dp238
g17
I1
sg18
g19
((lp239
g21
ag22
ag23
ag24
ag17
ag25
atRp240
sg27
S'GAGATGGAGCAAACAAAGACCACAGAGGACCTGAGACAACCAGGGAAGTTCCTGAGACTCTCCAGTGTAGCGTCTAGATTCGCCTTCAGTAGCTTCTGTATGAGCCCAGTGAATCAGTCTGCAGTCAAGGGGCTGGCGTAATTAATAGACATAAAAGATGATGAAAGTCAGATTCTCCACGCATACACTGTGGAGCGAAGATTCTCCGTCTCCAACGAAAACGCCAAGAACTCTCTGTATCCGCAAATAAAACTACATAGAACTGAGGATATGCCTGTGTAGGAGTGTATATTAGATTGGTA--TAACTGGAGGATCCCGCTGATTCCTCCCAGCACTCGGGCAAGGGCACACCGCTCACCGGCTCCTCAG'
p241
sg29
g231
sg30
F17
sg31
I1
sg32
Nsg33
F1
sg34
(lp242
sg66
S'seq11'
p243
sbag12
(g13
g14
NtRp244
(dp245
g17
I1
sg18
g19
((lp246
g21
ag22
ag23
ag24
ag17
ag25
atRp247
sg27
S'GAGATGGAGCAAACAAAGCCCACAGTGGACCTGAGACAACCAGGGAAGTTCCTGAGACTCTCCAGTGTAGCGTCTAGATTCGCCTTCAGTAGCTTCTGTATGAGCCCAGTGAATCAGTCTGCAGTCAAGGGGCTGGAGTAATTAATAGATATAAAAGATGATGGAAGTCAGATTCTCCACGCATACTCTGTGAAGCGCAGATTCTCCGTCTCCAACGAAAATGCCAAGAACTCTCTGTATCCGCAAATGAACCTACATAGAACTGAGGACATGGCTGTGTAGGAGTGTATATTAGATTGGTA--TAACTGGAGCAACCCGCTGAATACTCCCAGCACTGGGGCAAGGGCACACCGCTCACCGGCTCCTCAG'
p248
sg29
g231
sg30
F1
sg31
I1
sg32
Nsg33
F1
sg34
(lp249
sg66
S'seq12'
p250
sbasg66
S'11'
p251
sbasg66
S'seq3'
p252
sbasg66
S'seq2'
p253
sbasg66
S'9'
sbasg66
S'4'
sbasg66
S'seq15'
p254
sbasg66
S'2'
sbasg66
S'1'
sbasg66
S'ighv'
p255
sbsg4
Nsg7
Nsg6
I2
sb(i__main__
CollapsedTree
p256
(dp257
g5
g12
(g13
g14
NtRp258
(dp259
g17
I20
sg18
g19
((lp260
S'dist'
p261
aS'name'
p262
aS'sequence'
p263
aS'support'
p264
ag17
aS'frequency'
p265
atRp266
sg27
S'GAGGTGGAGCTGATAGAGCCCACAGAGGACCTGAGACAACCTGGGAAGTTCCTGAGACTCTCCTGTGTAGCCTCTAGATTCGCCTTCAGTAGCTTCTGAATGAGCCCAGTTCACCAGTCTGCAGGCAAGGGGCTGGAGTGAGTAATAGATATAAAAGATGATGGAAGTCAGATACACCATGCAGACTCTGTGAAGGGCAGATTCTCCATCTCCAAAGACAATGCTAAGAACTCTCTGTATCTGCAAATGAACAGTCAGAGAACTGAGGACATGGCTGTGTATGGCTGTACATAAGGTTGGT--ATAACTGGAACAAC--GCTGAATACTTCCAGCACTGGGGCCAGGGCACCCTGGTCACCGTCTCCTCAG'
p267
sg29
Nsg30
F0
sg31
I0
sg32
Nsg33
F1
sg34
(lp268
g12
(g13
g14
NtRp269
(dp270
g17
I20
sg18
g19
((lp271
g261
ag262
ag263
ag264
ag17
ag265
atRp272
sg27
S'GAGGTGGAGCTGATAGAGCCCACAGAGGACCTGAGACAACCTGGGAAGTTCCTGAGACTCTCCTGTGTAGCCTCTAGATTCGCCTTCAGTAGCTTCTGAATGAGCCCAGTTCACCAGTCTGCAGGCAAGGGGCTGGAGTGAGTAATAGATATAAAAGATGATGGAAGTCAGATACACCATGCAGACTCTGTGAAGGGCAGATTCTCCATCTCCAAAGACAATGCTAAGAACTCTCTGTATCTGCAAATGAACAGTCAGAGAACTGAGGACATGGCTGTGTATGGCTGTACATAAGGTTGGT--ATAACTGGAACAACCCGCTGAATACTTCCAGCACTGGGGCCAGGGCACCCTGGTCACCGTCTCCTCAG'
p273
sg29
g258
sg30
F2
sg31
I1
sg32
Nsg33
F1
sg34
(lp274
g12
(g13
g14
NtRp275
(dp276
g17
I6
sg18
g19
((lp277
g261
ag262
ag263
ag264
ag17
ag265
atRp278
sg27
S'GAGGTGGAGCTGATAGAGCCCACAGAGGACCTGAGACAACCTGGGAAGTTCCTGAGACTCTCCTGTGTAGCCTCTAGATTCGCCTTCAGTAGCTTCTGAATGAGCCCAGTTCACCAGTCTGCAGGCAAGGGGCTGGAGTGAGTAATAGATATAAAAGATGATGGAAGTCAGATACACCATGCAGACTCTGTGAAGGGCAGATTCTCCATCTCCAAAGACAATGCTAAGAACTCTCTGTATCTGCAAATGAACAGTCAGAGAACTGAGGACATGGCTGTGTATGGCTGTACATAAGGTTGGTA--TAACTGGAACAACCCGCTGAATACTTCCAGCACTGGGGCCAGGGCACCCTGGTCACCGTCTCCTCAG'
p279
sg29
g269
sg30
F2
sg31
I0
sg32
Nsg33
F1
sg34
(lp280
g12
(g13
g14
NtRp281
(dp282
g17
I1
sg18
g19
((lp283
g261
ag262
ag263
ag264
ag17
ag265
atRp284
sg27
S'GAGGTTGAGCTCATAGAGCCCACAGAGGAACTGAGACAACCTGGGAAGTTCCTGAGACTCTCCTGTGTAGCCTCTAGGTTCGCCTTCAGTGGGTTCTGAATGAGCCCAGTTCACCAGTCTGCAAGCAAGGGGCTGGAGTGAATAATAGATATAAAAGATGATGGCAGTCAGGTACACCATGCAGACTCTGTGAAGGGCAGATTCTCCATCCCCAAAGACAACGCTAAGAACTCTCTGTATCTGCAAATGAACAGTCAGAGAAGTGAGGACATGGCTGTGTACGGCTGTACATAAGGTTGGTA--TAACTGGAACAACCCGCTGAATACTTCCAGCACTGGGGCCAGGGCACCCTGGTCACCGTCTCCTCAG'
p285
sg29
g275
sg30
F14
sg31
I1
sg32
Nsg33
F1
sg34
(lp286
sg66
S'seq4'
p287
sbag12
(g13
g14
NtRp288
(dp289
g17
I5
sg18
g19
((lp290
g261
ag262
ag263
ag264
ag17
ag265
atRp291
sg27
S'GAGATGGAGCTGATAAAGCCCACAGAGGACCTGAGACAACCTGGGAAGTTCCTGAGACTCTCCTGTGTAGCCTCTAGATTCGCCTTCAGTAGCTTCTGTATGAGCCCAGTTAATCAGTCTGCAGTCAAGGGGCTGGAGTGATTAATAGATATAAAAGATGATGGAAGTCAGATACTCCACGCATACTCTGTGAAGGGCAGATTCTCCGTCTCCAAAGAAAATGCTAAGAACTCTCTGTATCTGCAAATGAACATTCAGAGAACTGAGGACATGGCTGTGTATGACTGTACATAAGGTTGGTA--TAACTGGAGCAACCCGCTGAATACTCCCAGCACTGGGGCAAGGGCACCCAGGTCACCGTCTCCTCAG'
p292
sg29
g275
sg30
F18
sg31
I0
sg32
Nsg33
F1
sg34
(lp293
g12
(g13
g14
NtRp294
(dp295
g17
I1
sg18
g19
((lp296
g261
ag262
ag263
ag264
ag17
ag265
atRp297
sg27
S'GAGATGGAGCTGATAAAGCCCACAGAGGACGTGAGACAACCTGTGCAGTTCCTGAGACGATCCGGTGTAGCCTCTAGATTCGCCTTCAGTAGCCCCAGTATGAGCCCAGTTACTCAGTCTGCAGTCAAGGGGCTGGAGAGATTAATAGATATAAAAGATGATGGAAGTCAGATACTCCACGCATACTCTGTGAAGGGCAGATTCTCCGTCTCCAAAGAAAATGCTAAGAACTCGCGGTATCTGCAAATGAACATTCAGAAAACTGAGGACATGGCTGTGTATGACTGTACGTAAGGTTGGTA--TAACTGTAGCAACCCGCTGAATACTCCCAGCTCTGGGGCAAGGGCACCCAGGTCACTGTCTCCTCAG'
p298
sg29
g288
sg30
F18
sg31
I1
sg32
Nsg33
F1
sg34
(lp299
sg66
S'seq10'
p300
sbag12
(g13
g14
NtRp301
(dp302
g17
I4
sg18
g19
((lp303
g261
ag262
ag263
ag264
ag17
ag265
atRp304
sg27
S'GAGATGGAGCTGATAAAGCCCACAGAGGACCTGAGACAACCTGGGAAGTTCCTGAGACTCTCCTGTGTAGCCTCTAGATTCGCCTTCAGTAGCTTCTGTATGAGCCCAGTTAATCAGTCTGCAGTCAAGGGGCTGGAGTCATTAATAGATATAAAAGATGATGGAAGTCAGATACTCCACGCATACTCTGTGAAGGGCAGATTCTCCGTCTCCAAAGAAAATGCTAAGAACTCTCTGTATCTGCAAATGAACATTCAGAGAACTGAGGACATGGCTGTGTATGACTGTACATAAGGTTGGTA--TAACTGGAGCAACCCGCTGAATACTCCCAGCACTGGGGCAAGGGCACCCAGGTCACCGTCTCCTCAG'
p305
sg29
g288
sg30
F1
sg31
I1
sg32
Nsg33
F1
sg34
(lp306
g12
(g13
g14
NtRp307
(dp308
g17
I3
sg18
g19
((lp309
g261
ag262
ag263
ag264
ag17
ag265
atRp310
sg27
S'GAGATGGAGCAAACAAAGCCCACAGAGGACCTGAGACAACCAGGGAAGTTCCTGAGACTCTCCTGTGTAGCGTCTAGATTCGCCTTCAGTAGCTTCTGTATGAGCCCAGTTAATCAGTCTGCAGTCAAGGGGCTGGAGTCATTAATAGATATAAAAGATGATGGAAGTCAGATTCTCCACGCATACTCTGTGAAGGGCAGATTCTCCGTCTCCAACGAAAATGCCAAGAACTCTCTGTATCCGCAAATGAACATACAGAGAACTGAGGACATGGCTGTGTAGGACTGTATATTAGGTTGGTA--TAACTGGAGCAACCCGCTGAATACTCCCAGCACTGGGGCAAGGGCACCCCGGTCACCGGCTCCTCAG'
p311
sg29
g301
sg30
F15
sg31
I1
sg32
Nsg33
F1
sg34
(lp312
g12
(g13
g14
NtRp313
(dp314
g17
I2
sg18
g19
((lp315
g261
ag262
ag263
ag264
ag17
ag265
atRp316
sg27
S'GAGATGGAGCAAACAAAGCCCACAGAGGACCTGAGACAACCAGGGAAGTTCCTGAGACTCTCCAGTGTAGCGTCTAGATTCGCCTTCAGTAGCTTCTGTATGAGCCCAGTGAATCAGTCTGCAGTCAAGGGGCTGGAGTAATTAATAGATATAAAAGATGATGGAAGTCAGATTCTCCACGCATACTCTGTGAAGCGCAGATTCTCCGTCTCCAACGAAAATGCCAAGAACTCTCTGTATCCGCAAATGAACCTACATAGAACTGAGGACATGGCTGTGTAGGAGTGTATATTAGATTGGTA--TAACTGGAGCAACCCGCTGAATACTCCCAGCACTGGGGCAAGGGCACACCGCTCACCGGCTCCTCAG'
p317
sg29
g307
sg30
F10
sg31
I0
sg32
Nsg33
F1
sg34
(lp318
g12
(g13
g14
NtRp319
(dp320
g17
I1
sg18
g19
((lp321
g261
ag262
ag263
ag264
ag17
ag265
atRp322
sg27
S'GAGATGGAGCAAACAAAGACCACAGAGGACCTGAGACAACCAGGGAAGTTCCTGAGACTCTCCAGTGTAGCGTCTAGATTCGCCTTCAGTAGCTTCTGTATGAGCCCAGTGAATCAGTCTGCAGTCAAGGGGCTGGCGTAATTAATAGACATAAAAGATGATGAAAGTCAGATTCTCCACGCATACACTGTGGAGCGAAGATTCTCCGTCTCCAACGAAAACGCCAAGAACTCTCTGTATCCGCAAATAAAACTACATAGAACTGAGGATATGCCTGTGTAGGAGTGTATATTAGATTGGTA--TAACTGGAGGATCCCGCTGATTCCTCCCAGCACTCGGGCAAGGGCACACCGCTCACCGGCTCCTCAG'
p323
sg29
g313
sg30
F17
sg31
I1
sg32
Nsg33
F1
sg34
(lp324
sg66
S'seq11'
p325
sbag12
(g13
g14
NtRp326
(dp327
g17
I1
sg18
g19
((lp328
g261
ag262
ag263
ag264
ag17
ag265
atRp329
sg27
S'GAGATGGAGCAAACAAAGCCCACAGTGGACCTGAGACAACCAGGGAAGTTCCTGAGACTCTCCAGTGTAGCGTCTAGATTCGCCTTCAGTAGCTTCTGTATGAGCCCAGTGAATCAGTCTGCAGTCAAGGGGCTGGAGTAATTAATAGATATAAAAGATGATGGAAGTCAGATTCTCCACGCATACTCTGTGAAGCGCAGATTCTCCGTCTCCAACGAAAATGCCAAGAACTCTCTGTATCCGCAAATGAACCTACATAGAACTGAGGACATGGCTGTGTAGGAGTGTATATTAGATTGGTA--TAACTGGAGCAACCCGCTGAATACTCCCAGCACTGGGGCAAGGGCACACCGCTCACCGGCTCCTCAG'
p330
sg29
g313
sg30
F1
sg31
I1
sg32
Nsg33
F1
sg34
(lp331
sg66
S'seq12'
p332
sbasg66
S'11'
p333
sbasg66
S'seq3'
p334
sbasg66
S'seq2'
p335
sbasg66
S'9'
sbasg66
S'3'
sbag12
(g13
g14
NtRp336
(dp337
g17
I13
sg18
g19
((lp338
g261
ag262
ag263
ag264
ag17
ag265
atRp339
sg27
S'GAGGTGGAGCTGATAGAGCCCACAGAGGACCTGAGACAACCTGGGAAGTTCCTGAGACTCTCCTGTGTAGCCTCTAGATTCGCCTTCAGTAGCTTCTGAATGAGCCCAGTTCACCAGTCTGCAGGCAAGGGGCTGGAGTGAGTAATAGATATAAAAGATGATGGAAGTCAGATACACCATGCAGACTCTGTGAAGGGCAGATTCTCCATCTCCAAAGACAATGCTAAGAACTCTCTGTATCTGCAAATGAACAGTCAGAGAACTGAGGACATGGCTGTGTATGGCTGTACATAAGGTTCGA-TATAACTGGAACAACACGCTGAATACTTCCAGCACTGGGGCCAGGGCACCCTGGTCACCGTCTCCTCAG'
p340
sg29
g269
sg30
F4
sg31
I0
sg32
Nsg33
F1
sg34
(lp341
g12
(g13
g14
NtRp342
(dp343
g17
I6
sg18
g19
((lp344
g261
ag262
ag263
ag264
ag17
ag265
atRp345
sg27
S'GAGGTGGAGCTGATAGAGCCCACAGAGGACCTGAGACAACCTGGGAAGTTCCTGAGACTCTCCTGTGTAGCCTCTAGATTCGCCTTCAGTAGCTTCTGAATGAGCCCAGTTCACCAGTCTGCAGGCAAGGGGCTGGAGTGAGTAATAGATATAAAAGATGATGGAAGTCAGATACACCATGCAGACTCTGTGAAGGGCAGATTCTCCATCTCCAAAGACAATGCTAAGAACTCTCTGTATCTGCAAATGAACAGTCAGAGAACTGAGGACATGGCTGTGTATGGCTGTACATAAGGTTCGGGTATAACTGGAACAACATGCTGAATACTTCCAGCACTGGGGCCAGGGCACCCTGGTCACCGTCTCCTCAG'
p346
sg29
g336
sg30
F3
sg31
I1
sg32
Nsg33
F1
sg34
(lp347
g12
(g13
g14
NtRp348
(dp349
g17
I5
sg18
g19
((lp350
g261
ag262
ag263
ag264
ag17
ag265
atRp351
sg27
S'GAGGTGGAGCTGATAGAGCCCACAGAGGACCTGAGACAACCTGGGAAGTTCCTGAGACTCTCCTGTGTAGCCTCTAGATTCGCCTTCAGTAGCTTCTGAATGAGCCCAGTTCACCAGTCTGCAGGCAAGGGGCTGGAGTGAGTAATAGATATAAAAGATGATGGAAGTCAGATACACCATGCAGACTCTGTGAAGGGCAGATTCTCCATCTCCAAAGACAATGCTAAGAACTCTCTGTATCTGCAAATGAACAGTCAGAGAACTGAGGACATGGCTGTGTAAGGCTGTACATAAGGTTCGGGTATAACTGGAACAACATGCTGAATACTTCCAGCACTGGGGCCAGGGCACCCCGGTCACCGTCTCCTCAG'
p352
sg29
g342
sg30
F2
sg31
I0
sg32
Nsg33
F1
sg34
(lp353
g12
(g13
g14
NtRp354
(dp355
g17
I2
sg18
g19
((lp356
g261
ag262
ag263
ag264
ag17
ag265
atRp357
sg27
S'GAGGTGGAGCCGAGAAAGCCCACAGAGTACCTGAGACACCCTGGGAAGTTCCTGAGACTCTCCTGTGTAGCCTCTAGATTCGCCGTCAGTAGCTTCTGAATGAGCCCAGTTCACCAGTCTACAGGCAAGGGGCTGGAGTGAGTAATAGATATAAAAGATGATGGAAGACAGATACACCATACAGACTCTGTGAAGGGCAGATTCGCCATCTCCAAAGACAATGCTAAGAACTCTCTGTATCTGCAAATGAACATTTAGATAACTGAGTACATGGCTCTGTAAGGCTGTACATAAGTTTCGGGTATAACTCGAACAACATGCTGAATATTTCCAGCACTGGGTCCAGGGCACCCAGGTCACCGTCTCCTCAG'
p358
sg29
g348
sg30
F20
sg31
I0
sg32
Nsg33
F1
sg34
(lp359
g12
(g13
g14
NtRp360
(dp361
g17
I1
sg18
g19
((lp362
g261
ag262
ag263
ag264
ag17
ag265
atRp363
sg27
S'GAGGTGGAGCCGAGAAAGCCCAAAGAGTACTTGAGACACCGTGGGAAGTTCCTGAGACTCTCCTGTGTAGCATCTAGATCCGCCGTCAGTAGCTTCTGAATGAGCCCAGTTCACCAGTCTACAGGCAAGGGGCTGGAGTGAGTAATAGATATAAAAGATGATGGAAGACAGATACACCATACAGACTCTGTCAACGGCAGATTCGCCATCTCCAAAGATAATGCTAAGAACTCTCTGTATCTGCAAATGGACATTTAGATAACTGAGTACATTGATCTGTAACGCTGTACATAAGTTTCGGGTATACCTCGAACAACATGCTGAATATTTCCAGCACTGGGTCCAGGGCACCAAGGTCACCCTCTCCTCAG'
p364
sg29
g354
sg30
F15
sg31
I1
sg32
Nsg33
F1
sg34
(lp365
sg66
S'seq8'
p366
sbag12
(g13
g14
NtRp367
(dp368
g17
I1
sg18
g19
((lp369
g261
ag262
ag263
ag264
ag17
ag265
atRp370
sg27
S'GAGGTGGAGCCGAGAAAGCCCACAGAGTACCTGAGACACCCTGGGAAGTTCCTGAGACTCTCCTGTGTAGCCTCTAGATTCGCCGTCAGTAGCTTCTGAATGAGCCCAGTTCACCAGTCTACAGGCAAGGGGCTGGAGTGAGTAATAGATATAAAAGATGATGGAAGGCAGATACACCATACAGACTCTGTGAAGGGCAGATTCGCCATCTCCAAAGACAATGCTAAGAACTCTCTGTATCTGCAAATGAACATTTAGATAACTGAGTACATGGCTCTGTAAGGCTGTACATAAGTTTCGGGTATAACTCGAACAACATGCTGAATATTTCCAGCACTGGGTCCAGGGCACCCAGGTCACCGTCTCCTCAG'
p371
sg29
g354
sg30
F1
sg31
I1
sg32
Nsg33
F1
sg34
(lp372
sg66
S'seq19'
p373
sbasg66
S'16'
p374
sbag12
(g13
g14
NtRp375
(dp376
g17
I3
sg18
g19
((lp377
g261
ag262
ag263
ag264
ag17
ag265
atRp378
sg27
S'GAGGTGGAGCTGATAGTGCCCACAGAGGACCCGAGACAACCTGGGAAGTTCCTGAGACTCTCCTGTGTAGCCTCTAGACTCGCCTTCAGTAGCTTCTGAATGAGCCCAGTTCACCAGTCTGAAGGCGAGGAGCTGGAGTGAGTAATAGATATAAAAGATGATGGAAGTCAGATACACCATGCAGACTCTGTGAAGGGCAGATTCTCCATCTCAAAAGACAATGCTAAGAACTCTCTGTATCTGCAAATGAACAGTCAGAGAACTGAGGAAATGGCTGTGTAAGGCTGTACATAAGGTTCGGGTATAAATGGAACAGCATGCTGAATACTTCCAGCACTGGGGCCAGGGCACCCCGGTCGCCGTCTCCTCAG'
p379
sg29
g348
sg30
F11
sg31
I1
sg32
Nsg33
F1
sg34
(lp380
g12
(g13
g14
NtRp381
(dp382
g17
I2
sg18
g19
((lp383
g261
ag262
ag263
ag264
ag17
ag265
atRp384
sg27
S'GAGGTGGAGCTGATAGTGCCTACAGAGGACCCGAGACAACCTGGGAAGTTTATGAGACTCTCCTGTGTAGCCTATAGACTAGCCTTCAGTTGCTTCTGAATGAGGCCAGTTCACCAGTCTGAAGGCGAGGAGCTGGAGTGAGTAATAGATATAAAAGATGATGGAAGTCAGATACACCATGCAGACTCTGTGAAGGGCAGATTCTCCATCTCAAAACAAAATGCTAAGAACTCTCTGTATCTGCAAATGAACAGTCGGAGAACTGAGGAAGTGGCTGTGTAAGGCTGTACATAAGGTTCGGATATAAATGGAACAGCATGCTGAATACTTCCAGCACTGGGGCCAGGGCACCCCGGTCGCCGTCTCCTCAG'
p385
sg29
g375
sg30
F12
sg31
I0
sg32
Nsg33
F1
sg34
(lp386
g12
(g13
g14
NtRp387
(dp388
g17
I1
sg18
g19
((lp389
g261
ag262
ag263
ag264
ag17
ag265
atRp390
sg27
S'GAGGTGTAGCTGATAGTGCCTACAGAGGACCCGAGACAACCTGGGAAGTTTATGAGACTCTCCTGTGTAGCCTATAGACTAGCCTTCAGTTGCTTCTGAATGAGGCCAGTTCACCAGTCTGAAGGCGAGGAGCTGGAGTGAGTAATAGATATAAAAGATGATGGAAGTCAGATACACCATGCAGACTCTGTGAAGGGCAGATTCTCCATCTCAAAACAAAATGCTAAGAACTCTCTGTATCTGCAAATGAACAGTCGGAGAACTGAGGAAGTGGCTGTGTAAGGCTGTACATAAGGTTCGGATATAAATGGAACAGCATGCTGAATACTTCCAGCACTGGGGCCAGGGCACCCCGGTCGCCGTCTCCTCAG'
p391
sg29
g381
sg30
F1
sg31
I1
sg32
Nsg33
F1
sg34
(lp392
sg66
S'seq9'
p393
sbag12
(g13
g14
NtRp394
(dp395
g17
I1
sg18
g19
((lp396
g261
ag262
ag263
ag264
ag17
ag265
atRp397
sg27
S'GAGGTTAAGCTGATAGTGCCTACAGAGGACCAGAGACAACCTGGGTAGTTTATGAGACTCTCCTGTGTAGCCTATAGACTAGCCTTCAGTTGCTTCTGAATGAGGCCAGTTCACTAGTCTGAAGGCAAGGAGCTGGAGTGAGTAATAGATATAAAAGATGACGGCAGTCATATACACCTTGCAGACTCTGTGAAGGGCAGATTCTCCATCTCAAAACCAAATGCTAAGAACTCTCTGTATCTGCAAATGAACAGTCGGAGGACTGAGGAAGTGGCTGAGTAAGGCTGTACGTAAGGTTCGGATATAAATGGAACAGCATGCTGCATACTTCCAGCACTGGGGCCAGGCCATCCCGGTCGCCGTCTTCTCAT'
p398
sg29
g381
sg30
F19
sg31
I1
sg32
Nsg33
F1
sg34
(lp399
sg66
S'seq6'
p400
sbasg66
S'8'
sbasg66
S'seq7'
p401
sbasg66
S'7'
sbasg66
S'seq14'
p402
sbag12
(g13
g14
NtRp403
(dp404
g17
I7
sg18
g19
((lp405
g261
ag262
ag263
ag264
ag17
ag265
atRp406
sg27
S'GAGGTGGAGCTGATAGAGCCCACAGAGGACCTGAGACAACCTGGGAAGTTCCTGAGACTCTCCTGTGTAGCCTCTAGATTCGCCTTCAGTAGCTTCTGAATGAGCCCAGTTCACCAGTCTGCAGGCAAGGGGCTGGAGTGAGTAATAGATATAAAAGATGATGGAAGTCAGATACACCATGCAGACTCTGTGAAGGGCAGATTCTCCATCTCCAAAGACAATGCTAAGAACTCTCTGTATCTGCAAATGAACAGTCAGAGAACTGAGGACATGGCTGTGTATGGCTGTACATAAGGTATAA-TGTACT----TTACAACGCTGAATACTTCCAGCACTGGGGCCAGGGCACCCTGGTCACCGTCTCCTCAG'
p407
sg29
g336
sg30
F14
sg31
I0
sg32
Nsg33
F1
sg34
(lp408
g12
(g13
g14
NtRp409
(dp410
g17
I1
sg18
g19
((lp411
g261
ag262
ag263
ag264
ag17
ag265
atRp412
sg27
S'GAGGTGGAGCTGATAGAGCCCACAGAGGACCTGAGACAACCTGGGAAGTTCCTGAGACTCTCCTGTGTAGCCTCTAGATTCGCCTTCAGTAGCTTCTGAATGAGCCCAGTTCACCAGTCTGCAGGCAAGGGGCTGGAGTGAGTAATAGATATAAAAGATGATGGAAGTCAGATACACCATGCAGACTCTGTGAAGGGCAGATTCTCCATCTCCAAAGACAATGCTAAGAACTCTCTGTATCTGCAAATGAACAGTCAGAGAACTGAGGACATGGCTGTGTATGGCTGTACATAAGGTATAA--CTG------GAACAACGCTGAATACTTCCAGCACTGGGGCCAGGGCACCCTGGTCACCGTCTCCTCAG'
p413
sg29
g403
sg30
F7
sg31
I1
sg32
Nsg33
F1
sg34
(lp414
sg66
S'seq13'
p415
sbag12
(g13
g14
NtRp416
(dp417
g17
I6
sg18
g19
((lp418
g261
ag262
ag263
ag264
ag17
ag265
atRp419
sg27
S'GAGGTGGAGCTGATAGAGGCCACAGAGGACCTGAGACGACCTGGGATGTTCCTGAGACTCTCCTGTGTAGACTCTAGATTCGCCTTCAGTAGCTTCTGAATGAGCCCAGTTCACCACTCTGCAGGCAAGGGGCTGGAGTGAGTAATAGATATAAAAGAAGATGGAAGTCAGATACACCATGCAGACTCTGTGAAGGGCAGATTCTCCATCTCAAAAGACAATGCTAAGAACTCTCTGTATCTGCAACTAAACAGTCAGATAACTAAGGACATGGCTGTGTATGGCTGTACATAAGGTATAACTGGACT------ACAACGCTCAATACTTCCAGCACTGGGGCCAGGGCACCCTGGTCACCGTCTCCTCAG'
p420
sg29
g403
sg30
F16
sg31
I0
sg32
Nsg33
F1
sg34
(lp421
g12
(g13
g14
NtRp422
(dp423
g17
I1
sg18
g19
((lp424
g261
ag262
ag263
ag264
ag17
ag265
atRp425
sg27
S'GAGGTGGAGCTGATAGAGGCCACAGAGGACCTGAGACGACCTGGGATGTTCCTGAGACTCTCCTGTGTAGACTCTAGATTCGCCTTCAGTAGCTTCTGAATGAGCCCAGTTCACCACTCTGCAGGCAAGGGGCTGGAGTGAGTAATAGATATAAAAGAAGATGGAAGTCAGATACACCATGCAGACTCTGTGAAGGGCAGATTCTCCATCTCAAAAGACAATGCTAAGAACTCTCTGTATCTGCAACTAAACAGTCAGATAACTAAGGACATGGCTGTGTATGGCTGTACATAAGGTATAACTGGA--------ACAACGCTCAATACTTCCAGCACTGGGGCCAGGGCACCCTGGTCACCGTCTCCTCAG'
p426
sg29
g416
sg30
F2
sg31
I1
sg32
Nsg33
F1
sg34
(lp427
sg66
S'seq18'
p428
sbag12
(g13
g14
NtRp429
(dp430
g17
I5
sg18
g19
((lp431
g261
ag262
ag263
ag264
ag17
ag265
atRp432
sg27
S'GAGGTGGAGCTGATAGAGGCCACAGAGGACCTGAGACGACCTGGGATGTTCCTGAGACTCTCCTGTGTAGACTCTAGATTCGCCTTCAGTAGCTTCTGAATGAGCCCAGTTCACCACTCTGCAGGCAAGGGGCTGGAGTGAGTAATAGATATAAAAGAAGATGGAAGTCAGATACACCATGCAGACTCTGTGAAGGGCAGATTCTCCATCTCAAAAGACAATGCTAAGAACTCTCTGTATCTGCAACTAAACAGTCAGATAACTAAGGACATGGCTGTGTATGGCTGTACATAAGGTATAACTGGAAC--------AACGCTCAATACTTCCAGCACTGGGGCCAGGGCACCCTGGTCACCGTCTCCTCAG'
p433
sg29
g416
sg30
F4
sg31
I0
sg32
Nsg33
F1
sg34
(lp434
g12
(g13
g14
NtRp435
(dp436
g17
I2
sg18
g19
((lp437
g261
ag262
ag263
ag264
ag17
ag265
atRp438
sg27
S'GAGGTGCAGCTGATAGAGGACACAGAAGACCTGAGACGACCTGGGATGTTCCTGAGACTCTCCTGTGTAGACTCTAGATGCGCCTTCAGTAGCTTCTGAATGAGCCCAGTTCACCACTCTACAGGCAAGGGGCTGGAGTGAGTAATAGATATAAAAGCAGATGGAAGTCAGATACACCATGCAGACTCTGTGAAGGGTAGATTCTACATCTCAAAAGACAATGCTAAGAACTCTCTGTATCTGCACCTAAACAGTCAGATAACTAAGGACATGGCTGTGTATGGCTGTACATCAGGTATAACTGGAAC--------AACGCTCAATACTTCCAGCACGGGCGACAGGGCACCCTGGTCACCGTCTCCTCAG'
p439
sg29
g429
sg30
F13
sg31
I0
sg32
Nsg33
F1
sg34
(lp440
g12
(g13
g14
NtRp441
(dp442
g17
I1
sg18
g19
((lp443
g261
ag262
ag263
ag264
ag17
ag265
atRp444
sg27
S'GAGGTGCAGCTGATAGAGGACACAGAAGACCTGAGACGACCTGGGATGTTCCTGAGACTCTCCTGTGTAGACTCTAGATGCGCCTTCAGTAGCTTCTGAATGAGCCCAGTTCACCACTCTACAGGCAAGGGGCTGGAGTGAGTAATAGATATAAAAGCAGATGGAAGTCAGATACACCATGCAGACTCTGTGAAGGGTAGATTCTACATCTCAAAAGACAATGCTAAGAACTCTCTGTATCTGCAGCTAAACAGTCAGATAACTAAGGACATGGCTGTGTATGGCTGTACATCAGGTATAACTGGAAC--------AACGCTCAATACTTCCAGCACGGGCGACAGGGCACCCTGGTCACCGTCTCCTCAG'
p445
sg29
g435
sg30
F1
sg31
I1
sg32
Nsg33
F1
sg34
(lp446
sg66
S'seq17'
p447
sbag12
(g13
g14
NtRp448
(dp449
g17
I1
sg18
g19
((lp450
g261
ag262
ag263
ag264
ag17
ag265
atRp451
sg27
S'GAGGTGCAGCTGATCGTGGACACAGAAGACCTGAGACGACCTGGGATGTTCCGGAGACTCTCCTGTGTAGACTCTAGATGCGCCTTCAGTAGCTTCTGAATGAGCCCAGTTCACCACTCTACAGGGAAGGGGCTGGAGTGAGTAATAGATATAAAAGCAGATGGAAGTCAGATACACCATACAGACTCTGTGAAGGGTAGATTATACATCTCAAAAGACAATGCTAAGAACTCTCTGTATCTGCACCTAAACAGTCAGATAACTAAGGACATGGTTGTGTATGGCTGTACATCAGGTATAACTGGAAA--------AACGCTCAATACTTCCAGCACGGGCGACAGAGCACCCTGGTCACGGTCTCCTCAG'
p452
sg29
g435
sg30
F10
sg31
I1
sg32
Nsg33
F1
sg34
(lp453
sg66
S'seq20'
p454
sbasg66
S'17'
p455
sbag12
(g13
g14
NtRp456
(dp457
g17
I3
sg18
g19
((lp458
g261
ag262
ag263
ag264
ag17
ag265
atRp459
sg27
S'GAGGTGGAGCTGATAGAAGCCACAGAGCACCTGAGACGACCTGGGAAGTTCCTGAGTCTCTCCTGTGTAGAGTCTAGATTCGACTTCAGTAGCTTCTGAATGAGCCCAGTTCACCACGCTGCCGGCAAGGGGCTGGCGTGAGTTATAGATATAATAGAACATGGAAGTCTGATACACCATGCAGACTCTGCGAAGGGCAGATGCTCCATCTCAAAAGACAATGCTAAGAACTCTCTGTCTCTGCAACTAAACAGTCAGATAACTAAGGACATGGCTGTGTATGGCTGTACATATGGTATAACTGGAAC--------AACGCTCAATACTTCCAGCACTGGGGCCAGGGCACCCTGGTCACCGTCACCTCAC'
p460
sg29
g429
sg30
F19
sg31
I1
sg32
Nsg33
F1
sg34
(lp461
g12
(g13
g14
NtRp462
(dp463
g17
I1
sg18
g19
((lp464
g261
ag262
ag263
ag264
ag17
ag265
atRp465
sg27
S'GAGGTGGAGCCGAAAGAAGCCACAGAGCACCTGAGACGACCTGGGAAGTTCCTGAGTCTCTCCTGTGTAGAGTCCAAATTCGACTTCAGTAGCTTCTGAATGAGCCCAGTGCACCACGCTGCCGGCAAGGAGCTGGCGTGCGTTATAGATATATTAGAACATGGAAGTCGGATACACCATGCAGACTCTGCGAAGGGCAGGTGCTCGATCTCAAAAGACAATGCTAAGAACTCTCTGTCTCTGCAACTAAGCAGTCAGATAACTAAGGACATGGCTGTCTATGGCTGCACATATGGTATAACTGGAAC--------AACGCTCAATACTTCCAGCACTGGGGCCAGGGCACCCTGGTCACCGTCACATCAC'
p466
sg29
g456
sg30
F15
sg31
I1
sg32
Nsg33
F1
sg34
(lp467
sg66
S'seq16'
p468
sbag12
(g13
g14
NtRp469
(dp470
g17
I1
sg18
g19
((lp471
g261
ag262
ag263
ag264
ag17
ag265
atRp472
sg27
S'GAGGTGGAGCTGATAGAAGCGACAGAGCACCTGAGACGACCTGGGAGAATCCTAAGTCTCTCCTGTGTAGAGTCTAGATTCGACTGAAGTAACTTCTGAATGAGCCCAGTTCACCACGCTGCCGACAAGGGGCTGGCGTGAGTTATTGATATAATAGTACATGGAAGTCTGATACACCATGCAGACGCTGCGAAGGGCAGATGCTCCATCTCAAAAGACAATGCTAAGAACTCTCTTTGTCTGCAACTACACAGTCTGATAACTAAGGACATGCCTGTGTATGGCTGTACATATGGTATAACTGGAAC--------AACGCTCAATACTTCCCGCACTGGGGCCAGGGCACCCTGGTCCCCGTCACCTCAC'
p473
sg29
g456
sg30
F19
sg31
I1
sg32
Nsg33
F1
sg34
(lp474
sg66
S'seq5'
p475
sbasg66
S'seq1'
p476
sbasg66
S'14'
p477
sbasg66
S'15'
p478
sbasg66
S'12'
p479
sbasg66
S'5'
sbasg66
S'seq15'
p480
sbasg66
S'ighv'
p481
sbsg4
Nsg7
Nsg6
I2
sb(i__main__
CollapsedTree
p482
(dp483
g5
g12
(g13
g14
NtRp484
(dp485
g17
I20
sg18
g19
((lp486
S'dist'
p487
aS'name'
p488
aS'sequence'
p489
aS'support'
p490
ag17
aS'frequency'
p491
atRp492
sg27
S'GAGGTGGAGCTGATAGAGCCCACAGAGGACCTGAGACAACCTGGGAAGTTCCTGAGACTCTCCTGTGTAGCCTCTAGATTCGCCTTCAGTAGCTTCTGAATGAGCCCAGTTCACCAGTCTGCAGGCAAGGGGCTGGAGTGAGTAATAGATATAAAAGATGATGGAAGTCAGATACACCATGCAGACTCTGTGAAGGGCAGATTCTCCATCTCCAAAGACAATGCTAAGAACTCTCTGTATCTGCAAATGAACAGTCAGAGAACTGAGGACATGGCTGTGTATGGCTGTACATAAGGTTGGT--ATAACTGGAACAAC--GCTGAATACTTCCAGCACTGGGGCCAGGGCACCCTGGTCACCGTCTCCTCAG'
p493
sg29
Nsg30
F0
sg31
I0
sg32
Nsg33
F1
sg34
(lp494
g12
(g13
g14
NtRp495
(dp496
g17
I20
sg18
g19
((lp497
g487
ag488
ag489
ag490
ag17
ag491
atRp498
sg27
S'GAGGTGGAGCTGATAGAGCCCACAGAGGACCTGAGACAACCTGGGAAGTTCCTGAGACTCTCCTGTGTAGCCTCTAGATTCGCCTTCAGTAGCTTCTGAATGAGCCCAGTTCACCAGTCTGCAGGCAAGGGGCTGGAGTGAGTAATAGATATAAAAGATGATGGAAGTCAGATACACCATGCAGACTCTGTGAAGGGCAGATTCTCCATCTCCAAAGACAATGCTAAGAACTCTCTGTATCTGCAAATGAACAGTCAGAGAACTGAGGACATGGCTGTGTATGGCTGTACATAAGGTTGGT--ATAACTGGAACAACACGCTGAATACTTCCAGCACTGGGGCCAGGGCACCCTGGTCACCGTCTCCTCAG'
p499
sg29
g484
sg30
F2
sg31
I0
sg32
Nsg33
F1
sg34
(lp500
g12
(g13
g14
NtRp501
(dp502
g17
I6
sg18
g19
((lp503
g487
ag488
ag489
ag490
ag17
ag491
atRp504
sg27
S'GAGGTGGAGCTGATAGAGCCCACAGAGGACCTGAGACAACCTGGGAAGTTCCTGAGACTCTCCTGTGTAGCCTCTAGATTCGCCTTCAGTAGCTTCTGAATGAGCCCAGTTCACCAGTCTGCAGGCAAGGGGCTGGAGTGAGTAATAGATATAAAAGATGATGGAAGTCAGATACACCATGCAGACTCTGTGAAGGGCAGATTCTCCATCTCCAAAGACAATGCTAAGAACTCTCTGTATCTGCAAATGAACAGTCAGAGAACTGAGGACATGGCTGTGTATGGCTGTACATAAGGTTCGGGTATAACTGGAACAACATGCTGAATACTTCCAGCACTGGGGCCAGGGCACCCTGGTCACCGTCTCCTCAG'
p505
sg29
g495
sg30
F5
sg31
I1
sg32
Nsg33
F1
sg34
(lp506
g12
(g13
g14
NtRp507
(dp508
g17
I5
sg18
g19
((lp509
g487
ag488
ag489
ag490
ag17
ag491
atRp510
sg27
S'GAGGTGGAGCTGATAGAGCCCACAGAGGACCTGAGACAACCTGGGAAGTTCCTGAGACTCTCCTGTGTAGCCTCTAGATTCGCCTTCAGTAGCTTCTGAATGAGCCCAGTTCACCAGTCTGCAGGCAAGGGGCTGGAGTGAGTAATAGATATAAAAGATGATGGAAGTCAGATACACCATGCAGACTCTGTGAAGGGCAGATTCTCCATCTCCAAAGACAATGCTAAGAACTCTCTGTATCTGCAAATGAACAGTCAGAGAACTGAGGACATGGCTGTGTAAGGCTGTACATAAGGTTCGGGTATAACTGGAACAACATGCTGAATACTTCCAGCACTGGGGCCAGGGCACCCTGGTCACCGTCTCCTCAG'
p511
sg29
g501
sg30
F1
sg31
I0
sg32
Nsg33
F1
sg34
(lp512
g12
(g13
g14
NtRp513
(dp514
g17
I2
sg18
g19
((lp515
g487
ag488
ag489
ag490
ag17
ag491
atRp516
sg27
S'GAGGTGGAGCCGAGAAAGCCCACAGAGTACCTGAGACACCCTGGGAAGTTCCTGAGACTCTCCTGTGTAGCCTCTAGATTCGCCGTCAGTAGCTTCTGAATGAGCCCAGTTCACCAGTCTACAGGCAAGGGGCTGGAGTGAGTAATAGATATAAAAGATGATGGAAGGCAGATACACCATACAGACTCTGTGAAGGGCAGATTCGCCATCTCCAAAGACAATGCTAAGAACTCTCTGTATCTGCAAATGAACATTTAGATAACTGAGTACATGGCTCTGTAAGGCTGTACATAAGTTTCGGGTATAACTCGAACAACATGCTGAATATTTCCAGCACTGGGTCCAGGGCACCCAGGTCACCGTCTCCTCAG'
p517
sg29
g507
sg30
F20
sg31
I1
sg32
Nsg33
F1
sg34
(lp518
g12
(g13
g14
NtRp519
(dp520
g17
I1
sg18
g19
((lp521
g487
ag488
ag489
ag490
ag17
ag491
atRp522
sg27
S'GAGGTGGAGCCGAGAAAGCCCAAAGAGTACTTGAGACACCGTGGGAAGTTCCTGAGACTCTCCTGTGTAGCATCTAGATCCGCCGTCAGTAGCTTCTGAATGAGCCCAGTTCACCAGTCTACAGGCAAGGGGCTGGAGTGAGTAATAGATATAAAAGATGATGGAAGACAGATACACCATACAGACTCTGTCAACGGCAGATTCGCCATCTCCAAAGATAATGCTAAGAACTCTCTGTATCTGCAAATGGACATTTAGATAACTGAGTACATTGATCTGTAACGCTGTACATAAGTTTCGGGTATACCTCGAACAACATGCTGAATATTTCCAGCACTGGGTCCAGGGCACCAAGGTCACCCTCTCCTCAG'
p523
sg29
g513
sg30
F16
sg31
I1
sg32
Nsg33
F1
sg34
(lp524
sg66
S'seq8'
p525
sbasg66
S'seq19'
p526
sbag12
(g13
g14
NtRp527
(dp528
g17
I3
sg18
g19
((lp529
g487
ag488
ag489
ag490
ag17
ag491
atRp530
sg27
S'GAGGTGGAGCTGATAGTGCCCACAGAGGACCCGAGACAACCTGGGAAGTTCCTGAGACTCTCCTGTGTAGCCTCTAGACTCGCCTTCAGTAGCTTCTGAATGAGCCCAGTTCACCAGTCTGAAGGCAAGGAGCTGGAGTGAGTAATAGATATAAAAGATGATGGAAGTCAGATACACCATGCAGACTCTGTGAAGGGCAGATTCTCCATCTCAAAAGACAATGCTAAGAACTCTCTGTATCTGCAAATGAACAGTCAGAGAACTGAGGAAATGGCTGTGTAAGGCTGTACATAAGGTTCGGGTATAAATGGAACAGCATGCTGAATACTTCCAGCACTGGGGCCAGGGCACCCCGGTCGCCGTCTCCTCAG'
p531
sg29
g507
sg30
F11
sg31
I0
sg32
Nsg33
F1
sg34
(lp532
g12
(g13
g14
NtRp533
(dp534
g17
I1
sg18
g19
((lp535
g487
ag488
ag489
ag490
ag17
ag491
atRp536
sg27
S'GAGGTGGAGCTGATAGTGCCCACAGAGGACCCGAGACAACCTGGGAAGTTCCTGAGACTCTCCTGTGTAGCCTCTAGACTCGCCTTCAGTAGCTTCTGAATGAGCCCAGTTCACCAGTCTGAAGGCGAGGAGCTGGAGTGAGTAATAGATATAAAAGATGATGGAAGTCAGATACACCATGCAGACTCTGTGAAGGGCAGATTCTCCATCTCAAAAGACAATGCTAAGAACTCTCTGTATCTGCAAATGAACAGTCAGAGAACTGAGGAAATGGCTGTGTAAGGCTGTACATAAGGTTCGGGTATAAATGGAACAGCATGCTGAATACTTCCAGCACTGGGGCCAGGGCACCCCGGTCGCCGTCTCCTCAG'
p537
sg29
g527
sg30
F1
sg31
I1
sg32
Nsg33
F1
sg34
(lp538
sg66
S'seq7'
p539
sbag12
(g13
g14
NtRp540
(dp541
g17
I2
sg18
g19
((lp542
g487
ag488
ag489
ag490
ag17
ag491
atRp543
sg27
S'GAGGTGTAGCTGATAGTGCCTACAGAGGACCCGAGACAACCTGGGAAGTTTATGAGACTCTCCTGTGTAGCCTATAGACTAGCCTTCAGTTGCTTCTGAATGAGGCCAGTTCACCAGTCTGAAGGCAAGGAGCTGGAGTGAGTAATAGATATAAAAGATGATGGAAGTCAGATACACCATGCAGACTCTGTGAAGGGCAGATTCTCCATCTCAAAACAAAATGCTAAGAACTCTCTGTATCTGCAAATGAACAGTCGGAGAACTGAGGAAGTGGCTGTGTAAGGCTGTACATAAGGTTCGGATATAAATGGAACAGCATGCTGAATACTTCCAGCACTGGGGCCAGGGCACCCCGGTCGCCGTCTCCTCAG'
p544
sg29
g527
sg30
F13
sg31
I0
sg32
Nsg33
F1
sg34
(lp545
g12
(g13
g14
NtRp546
(dp547
g17
I1
sg18
g19
((lp548
g487
ag488
ag489
ag490
ag17
ag491
atRp549
sg27
S'GAGGTGTAGCTGATAGTGCCTACAGAGGACCCGAGACAACCTGGGAAGTTTATGAGACTCTCCTGTGTAGCCTATAGACTAGCCTTCAGTTGCTTCTGAATGAGGCCAGTTCACCAGTCTGAAGGCGAGGAGCTGGAGTGAGTAATAGATATAAAAGATGATGGAAGTCAGATACACCATGCAGACTCTGTGAAGGGCAGATTCTCCATCTCAAAACAAAATGCTAAGAACTCTCTGTATCTGCAAATGAACAGTCGGAGAACTGAGGAAGTGGCTGTGTAAGGCTGTACATAAGGTTCGGATATAAATGGAACAGCATGCTGAATACTTCCAGCACTGGGGCCAGGGCACCCCGGTCGCCGTCTCCTCAG'
p550
sg29
g540
sg30
F1
sg31
I1
sg32
Nsg33
F1
sg34
(lp551
sg66
S'seq9'
p552
sbag12
(g13
g14
NtRp553
(dp554
g17
I1
sg18
g19
((lp555
g487
ag488
ag489
ag490
ag17
ag491
atRp556
sg27
S'GAGGTTAAGCTGATAGTGCCTACAGAGGACCAGAGACAACCTGGGTAGTTTATGAGACTCTCCTGTGTAGCCTATAGACTAGCCTTCAGTTGCTTCTGAATGAGGCCAGTTCACTAGTCTGAAGGCAAGGAGCTGGAGTGAGTAATAGATATAAAAGATGACGGCAGTCATATACACCTTGCAGACTCTGTGAAGGGCAGATTCTCCATCTCAAAACCAAATGCTAAGAACTCTCTGTATCTGCAAATGAACAGTCGGAGGACTGAGGAAGTGGCTGAGTAAGGCTGTACGTAAGGTTCGGATATAAATGGAACAGCATGCTGCATACTTCCAGCACTGGGGCCAGGCCATCCCGGTCGCCGTCTTCTCAT'
p557
sg29
g540
sg30
F18
sg31
I1
sg32
Nsg33
F1
sg34
(lp558
sg66
S'seq6'
p559
sbasg66
S'7'
sbasg66
S'5'
sbasg66
S'6'
sbasg66
S'seq14'
p560
sbag12
(g13
g14
NtRp561
(dp562
g17
I7
sg18
g19
((lp563
g487
ag488
ag489
ag490
ag17
ag491
atRp564
sg27
S'GAGGTGGAGCTGATAGAGCCCACAGAGGACCTGAGACAACCTGGGAAGTTCCTGAGACTCTCCTGTGTAGCCTCTAGATTCGCCTTCAGTAGCTTCTGAATGAGCCCAGTTCACCAGTCTGCAGGCAAGGGGCTGGAGTGAGTAATAGATATAAAAGATGATGGAAGTCAGATACACCATGCAGACTCTGTGAAGGGCAGATTCTCCATCTCCAAAGACAATGCTAAGAACTCTCTGTATCTGCAAATGAACAGTCAGAGAACTGAGGACATGGCTGTGTATGGCTGTACATAAGGTATAA--CTA-G----CTACAACGCTGAATACTTCCAGCACTGGGGCCAGGGCACCCTGGTCACCGTCTCCTCAG'
p565
sg29
g495
sg30
F15
sg31
I0
sg32
Nsg33
F1
sg34
(lp566
g12
(g13
g14
NtRp567
(dp568
g17
I1
sg18
g19
((lp569
g487
ag488
ag489
ag490
ag17
ag491
atRp570
sg27
S'GAGGTGGAGCTGATAGAGCCCACAGAGGACCTGAGACAACCTGGGAAGTTCCTGAGACTCTCCTGTGTAGCCTCTAGATTCGCCTTCAGTAGCTTCTGAATGAGCCCAGTTCACCAGTCTGCAGGCAAGGGGCTGGAGTGAGTAATAGATATAAAAGATGATGGAAGTCAGATACACCATGCAGACTCTGTGAAGGGCAGATTCTCCATCTCCAAAGACAATGCTAAGAACTCTCTGTATCTGCAAATGAACAGTCAGAGAACTGAGGACATGGCTGTGTATGGCTGTACATAAGGTATAA--CTG------GAACAACGCTGAATACTTCCAGCACTGGGGCCAGGGCACCCTGGTCACCGTCTCCTCAG'
p571
sg29
g561
sg30
F4
sg31
I1
sg32
Nsg33
F1
sg34
(lp572
sg66
S'seq13'
p573
sbag12
(g13
g14
NtRp574
(dp575
g17
I6
sg18
g19
((lp576
g487
ag488
ag489
ag490
ag17
ag491
atRp577
sg27
S'GAGGTGGAGCTGATAGAGGCCACAGAGGACCTGAGACGACCTGGGAAGTTCCTGAGACTCTCCTGTGTAGACTCTAGATTCGCCTTCAGTAGCTTCTGAATGAGCCCAGTTCACCACTCTGCAGGCAAGGGGCTGGAGTGAGTAATAGATATAAAAGAAGATGGAAGTCAGATACACCATGCAGACTCTGTGAAGGGCAGATTCTCCATCTCAAAAGACAATGCTAAGAACTCTCTGTATCTGCAACTAAACAGTCAGATAACTAAGGACATGGCTGTGTATGGCTGTACATAAGGTATAACTGGA-G------ACAACGCTCAATACTTCCAGCACTGGGGCCAGGGCACCCTGGTCACCGTCTCCTCAG'
p578
sg29
g561
sg30
F17
sg31
I0
sg32
Nsg33
F1
sg34
(lp579
g12
(g13
g14
NtRp580
(dp581
g17
I1
sg18
g19
((lp582
g487
ag488
ag489
ag490
ag17
ag491
atRp583
sg27
S'GAGGTGGAGCTGATAGAGGCCACAGAGGACCTGAGACGACCTGGGATGTTCCTGAGACTCTCCTGTGTAGACTCTAGATTCGCCTTCAGTAGCTTCTGAATGAGCCCAGTTCACCACTCTGCAGGCAAGGGGCTGGAGTGAGTAATAGATATAAAAGAAGATGGAAGTCAGATACACCATGCAGACTCTGTGAAGGGCAGATTCTCCATCTCAAAAGACAATGCTAAGAACTCTCTGTATCTGCAACTAAACAGTCAGATAACTAAGGACATGGCTGTGTATGGCTGTACATAAGGTATAACTGGA--------ACAACGCTCAATACTTCCAGCACTGGGGCCAGGGCACCCTGGTCACCGTCTCCTCAG'
p584
sg29
g574
sg30
F2
sg31
I1
sg32
Nsg33
F1
sg34
(lp585
sg66
S'seq18'
p586
sbag12
(g13
g14
NtRp587
(dp588
g17
I5
sg18
g19
((lp589
g487
ag488
ag489
ag490
ag17
ag491
atRp590
sg27
S'GAGGTGGAGCTGATAGAGGCCACAGAGGACCTGAGACGACCTGGGAAGTTCCTGAGACTCTCCTGTGTAGACTCTAGATTCGCCTTCAGTAGCTTCTGAATGAGCCCAGTTCACCACTCTGCAGGCAAGGGGCTGGAGTGAGTAATAGATATAAAAGAAGATGGAAGTCAGATACACCATGCAGACTCTGTGAAGGGCAGATTCTCCATCTCAAAAGACAATGCTAAGAACTCTCTGTATCTGCAACTAAACAGTCAGATAACTAAGGACATGGCTGTGTATGGCTGTACATAAGGTATAACTGGAAC--------AACGCTCAATACTTCCAGCACTGGGGCCAGGGCACCCTGGTCACCGTCTCCTCAG'
p591
sg29
g574
sg30
F4
sg31
I0
sg32
Nsg33
F1
sg34
(lp592
g12
(g13
g14
NtRp593
(dp594
g17
I2
sg18
g19
((lp595
g487
ag488
ag489
ag490
ag17
ag491
atRp596
sg27
S'GAGGTGCAGCTGATAGAGGACACAGAAGACCTGAGACGACCTGGGATGTTCCTGAGACTCTCCTGTGTAGACTCTAGATGCGCCTTCAGTAGCTTCTGAATGAGCCCAGTTCACCACTCTACAGGCAAGGGGCTGGAGTGAGTAATAGATATAAAAGCAGATGGAAGTCAGATACACCATGCAGACTCTGTGAAGGGTAGATTCTACATCTCAAAAGACAATGCTAAGAACTCTCTGTATCTGCAACTAAACAGTCAGATAACTAAGGACATGGCTGTGTATGGCTGTACATCAGGTATAACTGGAAC--------AACGCTCAATACTTCCAGCACGGGCGACAGGGCACCCTGGTCACCGTCTCCTCAG'
p597
sg29
g587
sg30
F13
sg31
I0
sg32
Nsg33
F1
sg34
(lp598
g12
(g13
g14
NtRp599
(dp600
g17
I1
sg18
g19
((lp601
g487
ag488
ag489
ag490
ag17
ag491
atRp602
sg27
S'GAGGTGCAGCTGATAGAGGACACAGAAGACCTGAGACGACCTGGGATGTTCCTGAGACTCTCCTGTGTAGACTCTAGATGCGCCTTCAGTAGCTTCTGAATGAGCCCAGTTCACCACTCTACAGGCAAGGGGCTGGAGTGAGTAATAGATATAAAAGCAGATGGAAGTCAGATACACCATGCAGACTCTGTGAAGGGTAGATTCTACATCTCAAAAGACAATGCTAAGAACTCTCTGTATCTGCAGCTAAACAGTCAGATAACTAAGGACATGGCTGTGTATGGCTGTACATCAGGTATAACTGGAAC--------AACGCTCAATACTTCCAGCACGGGCGACAGGGCACCCTGGTCACCGTCTCCTCAG'
p603
sg29
g593
sg30
F1
sg31
I1
sg32
Nsg33
F1
sg34
(lp604
sg66
S'seq17'
p605
sbag12
(g13
g14
NtRp606
(dp607
g17
I1
sg18
g19
((lp608
g487
ag488
ag489
ag490
ag17
ag491
atRp609
sg27
S'GAGGTGCAGCTGATCGTGGACACAGAAGACCTGAGACGACCTGGGATGTTCCGGAGACTCTCCTGTGTAGACTCTAGATGCGCCTTCAGTAGCTTCTGAATGAGCCCAGTTCACCACTCTACAGGGAAGGGGCTGGAGTGAGTAATAGATATAAAAGCAGATGGAAGTCAGATACACCATACAGACTCTGTGAAGGGTAGATTATACATCTCAAAAGACAATGCTAAGAACTCTCTGTATCTGCACCTAAACAGTCAGATAACTAAGGACATGGTTGTGTATGGCTGTACATCAGGTATAACTGGAAA--------AACGCTCAATACTTCCAGCACGGGCGACAGAGCACCCTGGTCACGGTCTCCTCAG'
p610
sg29
g593
sg30
F11
sg31
I1
sg32
Nsg33
F1
sg34
(lp611
sg66
S'seq20'
p612
sbasg66
S'17'
p613
sbag12
(g13
g14
NtRp614
(dp615
g17
I3
sg18
g19
((lp616
g487
ag488
ag489
ag490
ag17
ag491
atRp617
sg27
S'GAGGTGGAGCTGATAGAAGCCACAGAGCACCTGAGACGACCTGGGAAGTTCCTGAGTCTCTCCTGTGTAGAGTCTAGATTCGACTTCAGTAGCTTCTGAATGAGCCCAGTTCACCACGCTGCCGGCAAGGGGCTGGCGTGAGTTATAGATATAATAGAACATGGAAGTCTGATACACCATGCAGACTCTGCGAAGGGCAGATGCTCCATCTCAAAAGACAATGCTAAGAACTCTCTGTCTCTGCAACTAAACAGTCAGATAACTAAGGACATGGCTGTGTATGGCTGTACATATGGTATAACTGGAAC--------AACGCTCAATACTTCCAGCACTGGGGCCAGGGCACCCTGGTCACCGTCACCTCAC'
p618
sg29
g587
sg30
F18
sg31
I1
sg32
Nsg33
F1
sg34
(lp619
g12
(g13
g14
NtRp620
(dp621
g17
I1
sg18
g19
((lp622
g487
ag488
ag489
ag490
ag17
ag491
atRp623
sg27
S'GAGGTGGAGCCGAAAGAAGCCACAGAGCACCTGAGACGACCTGGGAAGTTCCTGAGTCTCTCCTGTGTAGAGTCCAAATTCGACTTCAGTAGCTTCTGAATGAGCCCAGTGCACCACGCTGCCGGCAAGGAGCTGGCGTGCGTTATAGATATATTAGAACATGGAAGTCGGATACACCATGCAGACTCTGCGAAGGGCAGGTGCTCGATCTCAAAAGACAATGCTAAGAACTCTCTGTCTCTGCAACTAAGCAGTCAGATAACTAAGGACATGGCTGTCTATGGCTGCACATATGGTATAACTGGAAC--------AACGCTCAATACTTCCAGCACTGGGGCCAGGGCACCCTGGTCACCGTCACATCAC'
p624
sg29
g614
sg30
F15
sg31
I1
sg32
Nsg33
F1
sg34
(lp625
sg66
S'seq16'
p626
sbag12
(g13
g14
NtRp627
(dp628
g17
I1
sg18
g19
((lp629
g487
ag488
ag489
ag490
ag17
ag491
atRp630
sg27
S'GAGGTGGAGCTGATAGAAGCGACAGAGCACCTGAGACGACCTGGGAGAATCCTAAGTCTCTCCTGTGTAGAGTCTAGATTCGACTGAAGTAACTTCTGAATGAGCCCAGTTCACCACGCTGCCGACAAGGGGCTGGCGTGAGTTATTGATATAATAGTACATGGAAGTCTGATACACCATGCAGACGCTGCGAAGGGCAGATGCTCCATCTCAAAAGACAATGCTAAGAACTCTCTTTGTCTGCAACTACACAGTCTGATAACTAAGGACATGCCTGTGTATGGCTGTACATATGGTATAACTGGAAC--------AACGCTCAATACTTCCCGCACTGGGGCCAGGGCACCCTGGTCCCCGTCACCTCAC'
p631
sg29
g614
sg30
F19
sg31
I1
sg32
Nsg33
F1
sg34
(lp632
sg66
S'seq5'
p633
sbasg66
S'seq1'
p634
sbasg66
S'14'
p635
sbasg66
S'15'
p636
sbasg66
S'11'
p637
sbag12
(g13
g14
NtRp638
(dp639
g17
I7
sg18
g19
((lp640
g487
ag488
ag489
ag490
ag17
ag491
atRp641
sg27
S'GAGGTGGAGCTGATAGAGCCCACAGAGGACCTGAGACAACCTGGGAAGTTCCTGAGACTCTCCTGTGTAGCCTCTAGATTCGCCTTCAGTAGCTTCTGAATGAGCCCAGTTCACCAGTCTGCAGGCAAGGGGCTGGAGTGAGTAATAGATATAAAAGATGATGGAAGTCAGATACACCATGCAGACTCTGTGAAGGGCAGATTCTCCATCTCCAAAGACAATGCTAAGAACTCTCTGTATCTGCAAATGAACAGTCAGAGAACTGAGGACATGGCTGTGTATGGCTGTACATAAGGTTGGT--ATAACTGGAACAACCCGCTGAATACTTCCAGCACTGGGGCCAGGGCACCCTGGTCACCGTCTCCTCAG'
p642
sg29
g495
sg30
F1
sg31
I1
sg32
Nsg33
F1
sg34
(lp643
g12
(g13
g14
NtRp644
(dp645
g17
I6
sg18
g19
((lp646
g487
ag488
ag489
ag490
ag17
ag491
atRp647
sg27
S'GAGGTGGAGCTGATAGAGCCCACAGAGGACCTGAGACAACCTGGGAAGTTCCTGAGACTCTCCTGTGTAGCCTCTAGATTCGCCTTCAGTAGCTTCTGAATGAGCCCAGTTCACCAGTCTGCAGGCAAGGGGCTGGAGTGAATAATAGATATAAAAGATGATGGAAGTCAGATACACCATGCAGACTCTGTGAAGGGCAGATTCTCCATCTCCAAAGACAATGCTAAGAACTCTCTGTATCTGCAAATGAACAGTCAGAGAACTGAGGACATGGCTGTGTATGGCTGTACATAAGGTTGGTA--TAACTGGAACAACCCGCTGAATACTTCCAGCACTGGGGCCAGGGCACCCTGGTCACCGTCTCCTCAG'
p648
sg29
g638
sg30
F3
sg31
I0
sg32
Nsg33
F1
sg34
(lp649
g12
(g13
g14
NtRp650
(dp651
g17
I1
sg18
g19
((lp652
g487
ag488
ag489
ag490
ag17
ag491
atRp653
sg27
S'GAGGTTGAGCTCATAGAGCCCACAGAGGAACTGAGACAACCTGGGAAGTTCCTGAGACTCTCCTGTGTAGCCTCTAGGTTCGCCTTCAGTGGGTTCTGAATGAGCCCAGTTCACCAGTCTGCAAGCAAGGGGCTGGAGTGAATAATAGATATAAAAGATGATGGCAGTCAGGTACACCATGCAGACTCTGTGAAGGGCAGATTCTCCATCCCCAAAGACAACGCTAAGAACTCTCTGTATCTGCAAATGAACAGTCAGAGAAGTGAGGACATGGCTGTGTACGGCTGTACATAAGGTTGGTA--TAACTGGAACAACCCGCTGAATACTTCCAGCACTGGGGCCAGGGCACCCTGGTCACCGTCTCCTCAG'
p654
sg29
g644
sg30
F13
sg31
I1
sg32
Nsg33
F1
sg34
(lp655
sg66
S'seq4'
p656
sbag12
(g13
g14
NtRp657
(dp658
g17
I5
sg18
g19
((lp659
g487
ag488
ag489
ag490
ag17
ag491
atRp660
sg27
S'GAGATGGAGCTGATAAAGCCCACAGAGGACCTGAGACAACCTGGGAAGTTCCTGAGACTCTCCTGTGTAGCCTCTAGATTCGCCTTCAGTAGCTTCTGTATGAGCCCAGTTAATCAGTCTGCAGTCAAGGGGCTGGAGTGATTAATAGATATAAAAGATGATGGAAGTCAGATACTCCACGCATACTCTGTGAAGGGCAGATTCTCCGTCTCCAAAGAAAATGCTAAGAACTCTCTGTATCTGCAAATGAACATTCAGAGAACTGAGGACATGGCTGTGTATGACTGTACATAAGGTTGGTA--TAACTGGAGCAACCCGCTGAATACTCCCAGCACTGGGGCAAGGGCACCCAGGTCACCGTCTCCTCAG'
p661
sg29
g644
sg30
F18
sg31
I0
sg32
Nsg33
F1
sg34
(lp662
g12
(g13
g14
NtRp663
(dp664
g17
I1
sg18
g19
((lp665
g487
ag488
ag489
ag490
ag17
ag491
atRp666
sg27
S'GAGATGGAGCTGATAAAGCCCACAGAGGACGTGAGACAACCTGTGCAGTTCCTGAGACGATCCGGTGTAGCCTCTAGATTCGCCTTCAGTAGCCCCAGTATGAGCCCAGTTACTCAGTCTGCAGTCAAGGGGCTGGAGAGATTAATAGATATAAAAGATGATGGAAGTCAGATACTCCACGCATACTCTGTGAAGGGCAGATTCTCCGTCTCCAAAGAAAATGCTAAGAACTCGCGGTATCTGCAAATGAACATTCAGAAAACTGAGGACATGGCTGTGTATGACTGTACGTAAGGTTGGTA--TAACTGTAGCAACCCGCTGAATACTCCCAGCTCTGGGGCAAGGGCACCCAGGTCACTGTCTCCTCAG'
p667
sg29
g657
sg30
F18
sg31
I1
sg32
Nsg33
F1
sg34
(lp668
sg66
S'seq10'
p669
sbag12
(g13
g14
NtRp670
(dp671
g17
I4
sg18
g19
((lp672
g487
ag488
ag489
ag490
ag17
ag491
atRp673
sg27
S'GAGATGGAGCTGATAAAGCCCACAGAGGACCTGAGACAACCTGGGAAGTTCCTGAGACTCTCCTGTGTAGCCTCTAGATTCGCCTTCAGTAGCTTCTGTATGAGCCCAGTTAATCAGTCTGCAGTCAAGGGGCTGGAGTCATTAATAGATATAAAAGATGATGGAAGTCAGATACTCCACGCATACTCTGTGAAGGGCAGATTCTCCGTCTCCAAAGAAAATGCTAAGAACTCTCTGTATCTGCAAATGAACATTCAGAGAACTGAGGACATGGCTGTGTATGACTGTACATAAGGTTGGTA--TAACTGGAGCAACCCGCTGAATACTCCCAGCACTGGGGCAAGGGCACCCAGGTCACCGTCTCCTCAG'
p674
sg29
g657
sg30
F1
sg31
I1
sg32
Nsg33
F1
sg34
(lp675
g12
(g13
g14
NtRp676
(dp677
g17
I3
sg18
g19
((lp678
g487
ag488
ag489
ag490
ag17
ag491
atRp679
sg27
S'GAGATGGAGCAAACAAAGCCCACAGAGGACCTGAGACAACCAGGGAAGTTCCTGAGACTCTCCTGTGTAGCGTCTAGATTCGCCTTCAGTAGCTTCTGTATGAGCCCAGTTAATCAGTCTGCAGTCAAGGGGCTGGAGTCATTAATAGATATAAAAGATGATGGAAGTCAGATTCTCCACGCATACTCTGTGAAGGGCAGATTCTCCGTCTCCAACGAAAATGCCAAGAACTCTCTGTATCCGCAAATGAACATACAGAGAACTGAGGACATGGCTGTGTAGGACTGTATATTAGGTTGGTA--TAACTGGAGCAACCCGCTGAATACTCCCAGCACTGGGGCAAGGGCACCCCGGTCACCGGCTCCTCAG'
p680
sg29
g670
sg30
F15
sg31
I1
sg32
Nsg33
F1
sg34
(lp681
g12
(g13
g14
NtRp682
(dp683
g17
I2
sg18
g19
((lp684
g487
ag488
ag489
ag490
ag17
ag491
atRp685
sg27
S'GAGATGGAGCAAACAAAGCCCACAGAGGACCTGAGACAACCAGGGAAGTTCCTGAGACTCTCCAGTGTAGCGTCTAGATTCGCCTTCAGTAGCTTCTGTATGAGCCCAGTGAATCAGTCTGCAGTCAAGGGGCTGGAGTAATTAATAGATATAAAAGATGATGGAAGTCAGATTCTCCACGCATACTCTGTGAAGCGCAGATTCTCCGTCTCCAACGAAAATGCCAAGAACTCTCTGTATCCGCAAATGAACCTACATAGAACTGAGGACATGGCTGTGTAGGAGTGTATATTAGATTGGTA--TAACTGGAGCAACCCGCTGAATACTCCCAGCACTGGGGCAAGGGCACACCGCTCACCGGCTCCTCAG'
p686
sg29
g676
sg30
F10
sg31
I0
sg32
Nsg33
F1
sg34
(lp687
g12
(g13
g14
NtRp688
(dp689
g17
I1
sg18
g19
((lp690
g487
ag488
ag489
ag490
ag17
ag491
atRp691
sg27
S'GAGATGGAGCAAACAAAGACCACAGAGGACCTGAGACAACCAGGGAAGTTCCTGAGACTCTCCAGTGTAGCGTCTAGATTCGCCTTCAGTAGCTTCTGTATGAGCCCAGTGAATCAGTCTGCAGTCAAGGGGCTGGCGTAATTAATAGACATAAAAGATGATGAAAGTCAGATTCTCCACGCATACACTGTGGAGCGAAGATTCTCCGTCTCCAACGAAAACGCCAAGAACTCTCTGTATCCGCAAATAAAACTACATAGAACTGAGGATATGCCTGTGTAGGAGTGTATATTAGATTGGTA--TAACTGGAGGATCCCGCTGATTCCTCCCAGCACTCGGGCAAGGGCACACCGCTCACCGGCTCCTCAG'
p692
sg29
g682
sg30
F17
sg31
I1
sg32
Nsg33
F1
sg34
(lp693
sg66
S'seq11'
p694
sbag12
(g13
g14
NtRp695
(dp696
g17
I1
sg18
g19
((lp697
g487
ag488
ag489
ag490
ag17
ag491
atRp698
sg27
S'GAGATGGAGCAAACAAAGCCCACAGTGGACCTGAGACAACCAGGGAAGTTCCTGAGACTCTCCAGTGTAGCGTCTAGATTCGCCTTCAGTAGCTTCTGTATGAGCCCAGTGAATCAGTCTGCAGTCAAGGGGCTGGAGTAATTAATAGATATAAAAGATGATGGAAGTCAGATTCTCCACGCATACTCTGTGAAGCGCAGATTCTCCGTCTCCAACGAAAATGCCAAGAACTCTCTGTATCCGCAAATGAACCTACATAGAACTGAGGACATGGCTGTGTAGGAGTGTATATTAGATTGGTA--TAACTGGAGCAACCCGCTGAATACTCCCAGCACTGGGGCAAGGGCACACCGCTCACCGGCTCCTCAG'
p699
sg29
g682
sg30
F1
sg31
I1
sg32
Nsg33
F1
sg34
(lp700
sg66
S'seq12'
p701
sbasg66
S'10'
p702
sbasg66
S'seq3'
p703
sbasg66
S'seq2'
p704
sbasg66
S'8'
sbasg66
S'3'
sbasg66
S'seq15'
p705
sbasg66
S'1'
sbasg66
S'ighv'
p706
sbsg4
Nsg7
Nsg6
I2
sbtp707
sb.