(i__main__
CollapsedForest
p1
(dp2
S'n_trees'
p3
I2
sS'frame'
p4
NsS'tree'
p5
NsS'_nparams'
p6
I2
sS'params'
p7
(lp8
F0.4990099084566148
aF0.029761904747934536
asS'forest'
p9
((i__main__
CollapsedTree
p10
(dp11
g5
ccopy_reg
_reconstructor
p12
(cete3.coretype.tree
TreeNode
p13
c__builtin__
object
p14
NtRp15
(dp16
S'partition'
p17
I252
sS'features'
p18
c__builtin__
set
p19
((lp20
S'dist'
p21
aS'name'
p22
aS'sequence'
p23
aS'support'
p24
ag17
aS'frequency'
p25
atRp26
sS'sequence'
p27
S'---------GAGGTGCAGCTGGTGGAGTCCGGGGGAGGCTTAGTTCAGCCTGGGGGGTCCCTGAGACTCTCCTGTGCAGCCTCTGGATTCACCTTCAGTAGCTACTGGATGCACTGGGTCCGCCAAGCTCCAGGGAAGGGGCTGGTGTGGGTCTCACGTATTAATAGTGATGGGAGTAGCACAACGTACGCGGACTCCGTGAAGGGCCGATTCACCATCTCCAGAGACAACGCCAAGAACACGCTGTATCTGCAAATGAACAGTCTGAGAGCCGAGGACACGGCTGTGTATTACTGTGGATACAGCTATGGTTACGGGCCAGGGCACCCTGGTCACCG--TCTCCTCAGGAGTCTGCTGTCTGGGGATAGCGGGGAGCCAGGTGTACTG-------'
p28
sS'_up'
p29
NsS'_dist'
p30
F0
sS'frequency'
p31
I0
sS'_img_style'
p32
NsS'_support'
p33
F1
sS'_children'
p34
(lp35
g12
(g13
g14
NtRp36
(dp37
g17
I252
sg18
g19
((lp38
g21
ag22
ag23
ag24
ag17
ag25
atRp39
sg27
S'---------GAGGTGCAGCTGGTGGAGTCCGGGGGAGGCTTAGTTCAGCCTGGGGGGTCCCTGAGACTCTCCTGTGCAGCCTCTGGATTCA-CTTCAGTAGCTACTGGATGCACTGGGTCCGCCAAGCTCCAGGGAAGGGGCTGGTGTGGGTCTCACGTATTAATTGTGATGGGACTGCGA-AACATATGCGGACTCCGTGAAGGGCCGATTCACCGTCTCCAGAGACAACGCCAGGAACACGCTGTATCTGCAAATGAACAGTCTGAGAGCCGAGGACACGGCTGTTTATTACTGTGCAAGAGATCAGGGGTCAGCGGATACAGGTGTGGGTACAGCCGTACCCTTTGACTCCTGGGGCCAGG-GAACCCT--GGTCACCGTCTCCTCAGGTAAG'
p40
sg29
g15
sg30
F78
sg31
I0
sg32
Nsg33
F1
sg34
(lp41
g12
(g13
g14
NtRp42
(dp43
g17
I67
sg18
g19
((lp44
g21
ag22
ag23
ag24
ag17
ag25
atRp45
sg27
S'---------------------------------------------------------------------------------------------------------------------------------------------------------------------------------------------GCGGACTCCGTGAAGGGCCGATTCACCGTCTCCAGAGACAACGCCAGGAACACGCTATATCTACAAATGAACAGTCTGACAGCCGACGACACGGCTGTTTATTACTGTGCAAGAGATCAGGGGTCAGCGGATACAGGTGTGGGTACAGCCGTACCCTTTGACTCCTGGGGCCAGG-GAACCCT--GGTCACCGTCTCCTCAGGTAAG'
p46
sg29
g36
sg30
F182
sg31
I67
sg32
Nsg33
F1
sg34
(lp47
sS'name'
p48
S'seq6'
p49
sbag12
(g13
g14
NtRp50
(dp51
g17
I185
sg18
g19
((lp52
g21
ag22
ag23
ag24
ag17
ag25
atRp53
sg27
S'GTCCAGTGTGAGGTGCAGCTGGTGGAGTCCGGGGGAGGCTTAGTTCAGCCTGGGGGGTCCCTGAGACTCTCCTGTGCAGCCTCTGGATTCATCTTCAGAACCTACTGGATGCACTGGGTCCGCCAAGCTCCAGGGAAGGGGCTGGTGTGGGTCTCACGTATTAATGGTGATGGGAATGATATAACCTATGCGGACTCCGTGAAGGGCCGATTCACCGTCTCCAGAGACAACGCCAGGAACACGCTGTATCTGCAAATGAACAGTCTGAGAGCCGAGGACACGGCTGTTTATTACTGTGCAAGAGATCAGGGGTCAGCGGATACAGGTGTGGGTACAGCCGTACCCTTTGACTCCTGGGGCCAGG-GAACCCT--GGTCACCGTCTCCTCAGGTAAG'
p54
sg29
g36
sg30
F18
sg31
I0
sg32
Nsg33
F1
sg34
(lp55
g12
(g13
g14
NtRp56
(dp57
g17
I3
sg18
g19
((lp58
g21
ag22
ag23
ag24
ag17
ag25
atRp59
sg27
S'GTCCAGTGTGAGGTGCAGCTGGTGGAGTCCGGGGGAGGCTTAGTTCAGCCTGGGGGGTCCCTGAGACTCTCCTGTGCAGCCTCTGGATTCATCTTCAGAACTTACTGGATGCACTGGGTCCGCCAAGCTCCAGGGAAGGGGCTGGTGTGGGTCTCACGTATTAATGGTGATGGGAATGATATAACCTATGCGGACTCCGTGAAGGGCCGATTCACCGTCTCCAGAGACAACGCCAGGAACACGCTGTATCTGCAAATGAACAGTCTGAGAGCCGAGGACACGGCTGTTTATTACTGTGCAAGAGATCAGGGGTCAGCGGACACAGGTGTGGGTACAGCCGTACCCTTTGACTCCTGGGGCCAGG-GAACCTT--GGTCACCGTCTCCTCAGGTAAG'
p60
sg29
g50
sg30
F3
sg31
I3
sg32
Nsg33
F1
sg34
(lp61
sg48
S'seq2'
p62
sbag12
(g13
g14
NtRp63
(dp64
g17
I182
sg18
g19
((lp65
g21
ag22
ag23
ag24
ag17
ag25
atRp66
sg27
S'GTCCAGTGTGAGGTGCAGCTGGTGGAGTCCGGGGGAGGCTTAGTTCAGCCTGGGGGGTCCCTGAGACTCTCCTGTGCAGCCTCTGGATTCATCTTCAGAACCTACTGGATGCACTGGGTCCGCCAAGCTCCAGGGAAGGGGCTGGTGTGGGTCTCACGTATTGATGGTGATGGGAATGATATAACCTATGCGGACTCCGTGAAGGGCCGATTCACCGTCTCCAGAGACAACGCCAGGAACACGCTGTATCTGCAAATGAACAGTCTGAGAGCCGAGGACACGGCTGTTTATTACTGTGCAAGAGATCAGGGGTCAGCGGATACAGGTGTGGGTACAGCCGTACCCTTTGACTCCTGGGGCCAGG-GAACCCT--GGTCACCGTCTCCTCAGGTAAG'
p67
sg29
g50
sg30
F1
sg31
I0
sg32
Nsg33
F1
sg34
(lp68
g12
(g13
g14
NtRp69
(dp70
g17
I2
sg18
g19
((lp71
g21
ag22
ag23
ag24
ag17
ag25
atRp72
sg27
S'GTCCAGTGTGAGGTGCAGCTGGTGGAGTCCGGGGGAGGCTTAGTTCAGCCTGGGGGGTCCCTGAGACTCTCCTGTGCAGCCTCTGGATTCATCTTCAGAACCTACTGGATGCACTGGGTCCGCCAAGCTCCAGGGAAGGGGCTGGTGTGGGTCTCACGTATTGATGGTGATGGGAATGATATAACCTATGCGGACTCCGTGAAGGGCCGATTCACCGTCTCCAGAGACAACGCCAGGAACACGCTGTATCTGCAAATGAACAGTCTGAGAGCCGAGGACACGGCTGTTTATTACTGTGCAAGAGATCAGGGGTCAGCGGATACAGGTGTAGGAACAGCCGTACCCTTTGACTCCTGGGGCCAGG-GAACCCT--GGTCACCGTCTCCTCAGGTAAG'
p73
sg29
g63
sg30
F2
sg31
I2
sg32
Nsg33
F1
sg34
(lp74
sg48
S'seq5'
p75
sbag12
(g13
g14
NtRp76
(dp77
g17
I180
sg18
g19
((lp78
g21
ag22
ag23
ag24
ag17
ag25
atRp79
sg27
S'GTCCAGTGTGAGGTGCAGCTGGTGGAGTCCGGGGGAGGCTTAGTTCAGCCGGGGGGGTCCCTGAGACTCTCCTGTGGAGCCTCTGGATTCATCTTCAGAACCTACTGGATGCACTGGGTCCGCCAAGCTCCAGGGAAGGGGCTAGTGTGGGTCTCACGTATTGATGGTGATGGGAATGATATAACCTACGCGGACTCCGTGAAGGGCCGATTCACCGTCTCCAGAGACAACGCCAGGAACACGCTGTATCTGCAAATGAACAGTCTGAGAGCCGAGGACACGGCTGTTTATTACTGTGCAAGAGATCAGGGGTCAGCGGATACAGGTGTGGGTACAGCCGTACCCTTTGACTCATGGGGCCAGG-GAACCCT--GGTCACCGTCTCCTCAGGTAAG'
p80
sg29
g63
sg30
F5
sg31
I0
sg32
Nsg33
F1
sg34
(lp81
g12
(g13
g14
NtRp82
(dp83
g17
I5
sg18
g19
((lp84
g21
ag22
ag23
ag24
ag17
ag25
atRp85
sg27
S'GTCCAGTGTGAGGTGCAGCTGGTGGAGTCCGGGGGAGGCTTAGTTCAGCCGGGGGGGTCCCTGAGACTCTCCTGTGGAGCCTCTGGGTTCATCTTCAGAACCTACTGGATGCACTGGGTCCGCCAAGCTCCAGGGAAGGGGCTAGTGTGGGTCTCACGTATTGATGGTGATGGGAATGATATAACTTACGCGGACTCCGTGAAGGGCCGATTCACCGTCTCCAGAGACAACGCCAGGAACACGCTGTATCTGCAAATGAACAGTCTGAGAGCCGAGGACACGGCTGTTTATTACTGTGCAAGAGATCAGGGGTCAGCGGATACAGGTGTGGGTACAGCCGTACCCTTTGACTCATGGGGCCAGG-GTACCCT--GGTCACCGTCTCCTCAGGTAAG'
p86
sg29
g76
sg30
F3
sg31
I5
sg32
Nsg33
F1
sg34
(lp87
sg48
S'seq7'
p88
sbag12
(g13
g14
NtRp89
(dp90
g17
I175
sg18
g19
((lp91
g21
ag22
ag23
ag24
ag17
ag25
atRp92
sg27
S'GTCCAGTGTGAGGTGCAGCTGGTGGAGTCCGGGGGAGGCTTAGTTCAGCCGGGGGGGTCCCTGAGACTCTCCTGTGGAGCCTCTGGATTCATCTTCAGAACCTACTGGATGCACTGGGTCCGCCAAGCTCCAGGGAAGGGGCTAGTGTGGGTCTCACGTATTGATGGTGATGGGAATGATATAACCTACGCGGACTCCGTGAAGGGCCGATTCACCGTCTCCAGAGACAACGCCAGGAACACGCTGTATCTGCAAATGAACAGTCTGAGAGCCGAGGACACGGCTGTTTATTACTGTGCAAGAGATCAGGGGTCAGCGGACACAGGTGTGGGCACAGCCGTACCCTTTGACTCATGGGGCCAGG-GAACCCT--GGTCACCGTCTCCTCAGGTAAG'
p93
sg29
g76
sg30
F2
sg31
I0
sg32
Nsg33
F1
sg34
(lp94
g12
(g13
g14
NtRp95
(dp96
g17
I4
sg18
g19
((lp97
g21
ag22
ag23
ag24
ag17
ag25
atRp98
sg27
S'GTCCAGTGTGAGGTGCAACTGGTGGAGTCCGGGGGAGGCTTAGTTCAGCCGGGGGGGTCCCTGAGACTCTCCTGTGCAGCCTCTGGATTCATCTTCAGAACCTACTGGATGCACTGGGTCCGCCAAGCTCCAGGGAAGGGGCTAGTGTGGGTCTCACGTATTGATGGTGATGGGAATGATATAACCTACGCGGACTCCGTGAAGGGCCGATTCACCGTCTCCAGAGACAACGCCAGGAACACGCTGTATCTGCAAATGAACAGTCTGAGAGCCGAGGACACGGCTGTTTATTACTGTGCAAGAGATCAGGGGTCAGCGGACACAGGTGTGGGCACAGCCGTCCCCTTTGACTCATGGGGCCAGG-GAACCCT--GGTCACCGTCTCCTCAGGTAAG'
p99
sg29
g89
sg30
F3
sg31
I4
sg32
Nsg33
F1
sg34
(lp100
sg48
S'seq4'
p101
sbag12
(g13
g14
NtRp102
(dp103
g17
I171
sg18
g19
((lp104
g21
ag22
ag23
ag24
ag17
ag25
atRp105
sg27
S'GTCCAGTGTGAGGTGCAGCTGGTGGAGTCCGGGGGAGGCTTAGTTCAGCCGGGGGGGTCCCTGAGACTCTCCTGTGGAGCCTCTGGATTCATCTTCAGCACCTACTGGATGCACTGGGTCCGCCACGCTCCAGGGAAGGGGCTAGTGTGGGTCTCACGTATTAATGGTGATGGGAATGATGTAACCTACGCGGACTCCGTGAAGGGCCGATTCACCGTCTCCAGAGACAACGCCAGGAACACGCTGTATCTGCAAATGAACAGTCTGAGAGCCGAGGACACGGCTGTTTATTACTGTGTAAGAGATCAGGGGTCAGCGGACACAGGTGTGGGCACAGCCGTACCCTTTGACTCATGGGGCCAGG-GAACCCT--GGTCACCGTCTCCTCAGGTAAG'
p106
sg29
g89
sg30
F5
sg31
I117
sg32
Nsg33
F1
sg34
(lp107
g12
(g13
g14
NtRp108
(dp109
g17
I1
sg18
g19
((lp110
g21
ag22
ag23
ag24
ag17
ag25
atRp111
sg27
S'GTCCAGTGTGAGGTGCAGCTGGTGGAGTCCGGGGGAGGCTTAGTTCGGCCGGGGGGGTCCCTGAGACTCTCCTGTGGAGCCTCTGGATTCATCTTCAGCACCTACTGGATGCACTGGGTCCGCCACGCTCCAGGGAAGGGGCTAGTGTGGGTCTCACGTATTAATGGTGATGGGAATGATGTAACCTACGCGGACTCCGTGAAGGGCCGATTCACCGTCTCCAGAGACAACGCCAGGAACACGCTGTATCTGCAGATGGACAGTCTGAGAGCCGAGGACACGGCTGTTTATTACTGTGTAAGAGATCAGGGGTCAGCGGACACAGGTGTGGGCACAGCCGTACCCTTTGACTCATGGGGACAGG-GAACCCT--GGTCACCGTCTCCTCAGGTAAG'
p112
sg29
g102
sg30
F4
sg31
I1
sg32
Nsg33
F1
sg34
(lp113
sg48
S'seq3'
p114
sbag12
(g13
g14
NtRp115
(dp116
g17
I22
sg18
g19
((lp117
g21
ag22
ag23
ag24
ag17
ag25
atRp118
sg27
S'GTCCAGTGTGAGGTGCAGCTGGTGGAGTCCGGGGGAGGCTTAGTTCAGCCGGGGGGGTCCCTGAGACTCTCCTGTGGAGCCTCTGGATTCATCTTCAGCACCTACTGGATGCACTGGGTCCGCCACGCTCCAGGGAAGGGGCTAGTGTGGGTCTCACGTATTAATGGTGATGGGAATGATGTAACCTACGCGGACTCCGTGAAGGGCCGATTCACCGTCTCCAGAGACAACGCCAGGAACACGCTGTATCTGCAAATGAACAGTCTGAGAGCCGAGGACACGGCTGTTTATTATTGTGTAAGAGATCAGGGGTCAGCGGACACAGGTGTGGGCACAGCCGTACCCTTTGACTCATGGGGCCAGG-GAACCCT--GGTCACCGTCTCCTCAGGTAAG'
p119
sg29
g102
sg30
F1
sg31
I7
sg32
Nsg33
F1
sg34
(lp120
g12
(g13
g14
NtRp121
(dp122
g17
I15
sg18
g19
((lp123
g21
ag22
ag23
ag24
ag17
ag25
atRp124
sg27
S'GTCCAGTGTGAGGTGCAGTTGGTGGAGTCCGGGGGAGGCTTAGTTCAGCCGGGGGGGTCCCTGAGACTCTCCTGTGGAGCCTCTGGATTCATCTTCAGCACCTACTGGATGCACTGGGTCCGCCACGCTCCAGGGAAGGGGCTAGTGTGGGTCTCACGTATTAATGGTGATGGGAATGATGTAACCTACGCGGACTCCGTGAAGGGCCGATTCACCGTCTCCAGAGACAACGCCAGGAACACGCTGTATCTGCAAATGAACAGTCTGAGAGCCGAGGACACGGCTGTTTATTATTGTGTGAGAGATCAGGGGTCAGCGGACACAGGTGTGGGCACAGCCGTACCCTTTGACTCATGGGGCCAGG-GAACCCT--GGTCACCGTCTCCTCAGGTAAG'
p125
sg29
g115
sg30
F2
sg31
I15
sg32
Nsg33
F1
sg34
(lp126
sg48
S'seq10'
p127
sbasg48
S'seq8'
p128
sbag12
(g13
g14
NtRp129
(dp130
g17
I31
sg18
g19
((lp131
g21
ag22
ag23
ag24
ag17
ag25
atRp132
sg27
S'GTCCAGTGTGAGGTGCAGCTGGTGGAGTCCGGGGGAGGCTTAGTTCAGCCGGGGGGGTCCCTGAGACTCTCCTGTGGAGCCTCTGGATTCATCTTCAGCACCTACTGGATGCACTGGGTCCGCCACGCTCCAGGGAAGGGGCTAGTGTGGGTCTCACGTATTAATGGTGATGGGAATGATGTAACCTACGCGGACTCCGTGAAGGGCCGATTCACCGTCTCCAGAGACAACGCCAGGAACACGCTGTATCTGCAAATGAACAGTCTGAGAGCCGAGGACACGGCTGTTTATTACTGTGTAAGAGATCAGGGGTCAGCGGACACAGGTGTGGGCACAGCCGTGCCCTTTGACTCATGGGGCCAGG-GAACCCT--GGTCACCGTCTCCTCAGGTAAG'
p133
sg29
g102
sg30
F1
sg31
I31
sg32
Nsg33
F1
sg34
(lp134
sg48
S'seq1'
p135
sbasg48
S'seq9'
p136
sbasg48
S'4'
sbasg48
S'6'
sbasg48
S'5'
sbasg48
S'2'
sbasg48
S'1'
sbasg48
S'vdj'
p137
sbsg4
Nsg7
Nsg6
I2
sb(i__main__
CollapsedTree
p138
(dp139
g5
g12
(g13
g14
NtRp140
(dp141
g17
I252
sg18
g19
((lp142
S'dist'
p143
aS'name'
p144
aS'sequence'
p145
aS'support'
p146
ag17
aS'frequency'
p147
atRp148
sg27
S'---------GAGGTGCAGCTGGTGGAGTCCGGGGGAGGCTTAGTTCAGCCTGGGGGGTCCCTGAGACTCTCCTGTGCAGCCTCTGGATTCACCTTCAGTAGCTACTGGATGCACTGGGTCCGCCAAGCTCCAGGGAAGGGGCTGGTGTGGGTCTCACGTATTAATAGTGATGGGAGTAGCACAACGTACGCGGACTCCGTGAAGGGCCGATTCACCATCTCCAGAGACAACGCCAAGAACACGCTGTATCTGCAAATGAACAGTCTGAGAGCCGAGGACACGGCTGTGTATTACTGTGGATACAGCTATGGTTACGGGCCAGGGCACCCTGGTCACCG--TCTCCTCAGGAGTCTGCTGTCTGGGGATAGCGGGGAGCCAGGTGTACTG-------'
p149
sg29
Nsg30
F0
sg31
I0
sg32
Nsg33
F1
sg34
(lp150
g12
(g13
g14
NtRp151
(dp152
g17
I252
sg18
g19
((lp153
g143
ag144
ag145
ag146
ag17
ag147
atRp154
sg27
S'---------GAGGTGCAGCTGGTGGAGTCCGGGGGAGGCTTAGTTCAGCCTGGGGGGTCCCTGAGACTCTCCTGTGCAGCCTCTGGATTCACCTTCAGCACCTACTGGATGCACTGGGTCCGCCAAGCTCCAGGGAAGGGGCTGGTGTGGGTCTCACGTATTGATGGTGATGGGA-TACCA-AACTTACGCGGACTCCGTGAAGGGCCGATTCACCGTCTCCAGAGACAACGCCAGGAACACGCTGTATCTGCAAATGAACAGTCTGAGAGCCGAGGACACGGCTGTTTATTACTGTGCAAGAGATCAGGGGTCAGCGGATACAGGTGTGGGTACAGCCGTACCCTTTGACTCCTGGGGCCAGG-GAACCCT--GGTCACCGTCTCCTCAGGTAAG'
p155
sg29
g140
sg30
F77
sg31
I0
sg32
Nsg33
F1
sg34
(lp156
g12
(g13
g14
NtRp157
(dp158
g17
I67
sg18
g19
((lp159
g143
ag144
ag145
ag146
ag17
ag147
atRp160
sg27
S'---------------------------------------------------------------------------------------------------------------------------------------------------------------------------------------------GCGGACTCCGTGAAGGGCCGATTCACCGTCTCCAGAGACAACGCCAGGAACACGCTATATCTACAAATGAACAGTCTGACAGCCGACGACACGGCTGTTTATTACTGTGCAAGAGATCAGGGGTCAGCGGATACAGGTGTGGGTACAGCCGTACCCTTTGACTCCTGGGGCCAGG-GAACCCT--GGTCACCGTCTCCTCAGGTAAG'
p161
sg29
g151
sg30
F182
sg31
I67
sg32
Nsg33
F1
sg34
(lp162
sg48
S'seq6'
p163
sbag12
(g13
g14
NtRp164
(dp165
g17
I185
sg18
g19
((lp166
g143
ag144
ag145
ag146
ag17
ag147
atRp167
sg27
S'GTCCAGTGTGAGGTGCAGCTGGTGGAGTCCGGGGGAGGCTTAGTTCAGCCTGGGGGGTCCCTGAGACTCTCCTGTGCAGCCTCTGGATTCATCTTCAGAACCTACTGGATGCACTGGGTCCGCCAAGCTCCAGGGAAGGGGCTGGTGTGGGTCTCACGTATTAATGGTGATGGGAATGATATAACCTACGCGGACTCCGTGAAGGGCCGATTCACCGTCTCCAGAGACAACGCCAGGAACACGCTGTATCTGCAAATGAACAGTCTGAGAGCCGAGGACACGGCTGTTTATTACTGTGCAAGAGATCAGGGGTCAGCGGATACAGGTGTGGGTACAGCCGTACCCTTTGACTCCTGGGGCCAGG-GAACCCT--GGTCACCGTCTCCTCAGGTAAG'
p168
sg29
g151
sg30
F18
sg31
I0
sg32
Nsg33
F1
sg34
(lp169
g12
(g13
g14
NtRp170
(dp171
g17
I5
sg18
g19
((lp172
g143
ag144
ag145
ag146
ag17
ag147
atRp173
sg27
S'GTCCAGTGTGAGGTGCAGCTGGTGGAGTCCGGGGGAGGCTTAGTTCAGCCTGGGGGGTCCCTGAGACTCTCCTGTGCAGCCTCTGGATTCATCTTCAGAACCTACTGGATGCACTGGGTCCGCCAAGCTCCAGGGAAGGGGCTGGTGTGGGTCTCACGTATTAATGGTGATGGGAATGATATAACCTATGCGGACTCCGTGAAGGGCCGATTCACCGTCTCCAGAGACAACGCCAGGAACACGCTGTATCTGCAAATGAACAGTCTGAGAGCCGAGGACACGGCTGTTTATTACTGTGCAAGAGATCAGGGGTCAGCGGATACAGGTGTGGGTACAGCCGTACCCTTTGACTCCTGGGGCCAGG-GAACCCT--GGTCACCGTCTCCTCAGGTAAG'
p174
sg29
g164
sg30
F1
sg31
I0
sg32
Nsg33
F1
sg34
(lp175
g12
(g13
g14
NtRp176
(dp177
g17
I2
sg18
g19
((lp178
g143
ag144
ag145
ag146
ag17
ag147
atRp179
sg27
S'GTCCAGTGTGAGGTGCAGCTGGTGGAGTCCGGGGGAGGCTTAGTTCAGCCTGGGGGGTCCCTGAGACTCTCCTGTGCAGCCTCTGGATTCATCTTCAGAACCTACTGGATGCACTGGGTCCGCCAAGCTCCAGGGAAGGGGCTGGTGTGGGTCTCACGTATTGATGGTGATGGGAATGATATAACCTATGCGGACTCCGTGAAGGGCCGATTCACCGTCTCCAGAGACAACGCCAGGAACACGCTGTATCTGCAAATGAACAGTCTGAGAGCCGAGGACACGGCTGTTTATTACTGTGCAAGAGATCAGGGGTCAGCGGATACAGGTGTAGGAACAGCCGTACCCTTTGACTCCTGGGGCCAGG-GAACCCT--GGTCACCGTCTCCTCAGGTAAG'
p180
sg29
g170
sg30
F3
sg31
I2
sg32
Nsg33
F1
sg34
(lp181
sg48
S'seq5'
p182
sbag12
(g13
g14
NtRp183
(dp184
g17
I3
sg18
g19
((lp185
g143
ag144
ag145
ag146
ag17
ag147
atRp186
sg27
S'GTCCAGTGTGAGGTGCAGCTGGTGGAGTCCGGGGGAGGCTTAGTTCAGCCTGGGGGGTCCCTGAGACTCTCCTGTGCAGCCTCTGGATTCATCTTCAGAACTTACTGGATGCACTGGGTCCGCCAAGCTCCAGGGAAGGGGCTGGTGTGGGTCTCACGTATTAATGGTGATGGGAATGATATAACCTATGCGGACTCCGTGAAGGGCCGATTCACCGTCTCCAGAGACAACGCCAGGAACACGCTGTATCTGCAAATGAACAGTCTGAGAGCCGAGGACACGGCTGTTTATTACTGTGCAAGAGATCAGGGGTCAGCGGACACAGGTGTGGGTACAGCCGTACCCTTTGACTCCTGGGGCCAGG-GAACCTT--GGTCACCGTCTCCTCAGGTAAG'
p187
sg29
g170
sg30
F3
sg31
I3
sg32
Nsg33
F1
sg34
(lp188
sg48
S'seq2'
p189
sbasg48
S'5'
sbag12
(g13
g14
NtRp190
(dp191
g17
I180
sg18
g19
((lp192
g143
ag144
ag145
ag146
ag17
ag147
atRp193
sg27
S'GTCCAGTGTGAGGTGCAGCTGGTGGAGTCCGGGGGAGGCTTAGTTCAGCCGGGGGGGTCCCTGAGACTCTCCTGTGGAGCCTCTGGATTCATCTTCAGAACCTACTGGATGCACTGGGTCCGCCAAGCTCCAGGGAAGGGGCTAGTGTGGGTCTCACGTATTAATGGTGATGGGAATGATATAACCTACGCGGACTCCGTGAAGGGCCGATTCACCGTCTCCAGAGACAACGCCAGGAACACGCTGTATCTGCAAATGAACAGTCTGAGAGCCGAGGACACGGCTGTTTATTACTGTGCAAGAGATCAGGGGTCAGCGGATACAGGTGTGGGTACAGCCGTACCCTTTGACTCATGGGGCCAGG-GAACCCT--GGTCACCGTCTCCTCAGGTAAG'
p194
sg29
g164
sg30
F4
sg31
I0
sg32
Nsg33
F1
sg34
(lp195
g12
(g13
g14
NtRp196
(dp197
g17
I5
sg18
g19
((lp198
g143
ag144
ag145
ag146
ag17
ag147
atRp199
sg27
S'GTCCAGTGTGAGGTGCAGCTGGTGGAGTCCGGGGGAGGCTTAGTTCAGCCGGGGGGGTCCCTGAGACTCTCCTGTGGAGCCTCTGGGTTCATCTTCAGAACCTACTGGATGCACTGGGTCCGCCAAGCTCCAGGGAAGGGGCTAGTGTGGGTCTCACGTATTGATGGTGATGGGAATGATATAACTTACGCGGACTCCGTGAAGGGCCGATTCACCGTCTCCAGAGACAACGCCAGGAACACGCTGTATCTGCAAATGAACAGTCTGAGAGCCGAGGACACGGCTGTTTATTACTGTGCAAGAGATCAGGGGTCAGCGGATACAGGTGTGGGTACAGCCGTACCCTTTGACTCATGGGGCCAGG-GTACCCT--GGTCACCGTCTCCTCAGGTAAG'
p200
sg29
g190
sg30
F4
sg31
I5
sg32
Nsg33
F1
sg34
(lp201
sg48
S'seq7'
p202
sbag12
(g13
g14
NtRp203
(dp204
g17
I175
sg18
g19
((lp205
g143
ag144
ag145
ag146
ag17
ag147
atRp206
sg27
S'GTCCAGTGTGAGGTGCAGCTGGTGGAGTCCGGGGGAGGCTTAGTTCAGCCGGGGGGGTCCCTGAGACTCTCCTGTGGAGCCTCTGGATTCATCTTCAGAACCTACTGGATGCACTGGGTCCGCCAAGCTCCAGGGAAGGGGCTAGTGTGGGTCTCACGTATTAATGGTGATGGGAATGATATAACCTACGCGGACTCCGTGAAGGGCCGATTCACCGTCTCCAGAGACAACGCCAGGAACACGCTGTATCTGCAAATGAACAGTCTGAGAGCCGAGGACACGGCTGTTTATTACTGTGCAAGAGATCAGGGGTCAGCGGACACAGGTGTGGGCACAGCCGTACCCTTTGACTCATGGGGCCAGG-GAACCCT--GGTCACCGTCTCCTCAGGTAAG'
p207
sg29
g190
sg30
F2
sg31
I0
sg32
Nsg33
F1
sg34
(lp208
g12
(g13
g14
NtRp209
(dp210
g17
I4
sg18
g19
((lp211
g143
ag144
ag145
ag146
ag17
ag147
atRp212
sg27
S'GTCCAGTGTGAGGTGCAACTGGTGGAGTCCGGGGGAGGCTTAGTTCAGCCGGGGGGGTCCCTGAGACTCTCCTGTGCAGCCTCTGGATTCATCTTCAGAACCTACTGGATGCACTGGGTCCGCCAAGCTCCAGGGAAGGGGCTAGTGTGGGTCTCACGTATTGATGGTGATGGGAATGATATAACCTACGCGGACTCCGTGAAGGGCCGATTCACCGTCTCCAGAGACAACGCCAGGAACACGCTGTATCTGCAAATGAACAGTCTGAGAGCCGAGGACACGGCTGTTTATTACTGTGCAAGAGATCAGGGGTCAGCGGACACAGGTGTGGGCACAGCCGTCCCCTTTGACTCATGGGGCCAGG-GAACCCT--GGTCACCGTCTCCTCAGGTAAG'
p213
sg29
g203
sg30
F4
sg31
I4
sg32
Nsg33
F1
sg34
(lp214
sg48
S'seq4'
p215
sbag12
(g13
g14
NtRp216
(dp217
g17
I171
sg18
g19
((lp218
g143
ag144
ag145
ag146
ag17
ag147
atRp219
sg27
S'GTCCAGTGTGAGGTGCAGCTGGTGGAGTCCGGGGGAGGCTTAGTTCAGCCGGGGGGGTCCCTGAGACTCTCCTGTGGAGCCTCTGGATTCATCTTCAGCACCTACTGGATGCACTGGGTCCGCCACGCTCCAGGGAAGGGGCTAGTGTGGGTCTCACGTATTAATGGTGATGGGAATGATGTAACCTACGCGGACTCCGTGAAGGGCCGATTCACCGTCTCCAGAGACAACGCCAGGAACACGCTGTATCTGCAAATGAACAGTCTGAGAGCCGAGGACACGGCTGTTTATTACTGTGTAAGAGATCAGGGGTCAGCGGACACAGGTGTGGGCACAGCCGTACCCTTTGACTCATGGGGCCAGG-GAACCCT--GGTCACCGTCTCCTCAGGTAAG'
p220
sg29
g203
sg30
F4
sg31
I117
sg32
Nsg33
F1
sg34
(lp221
g12
(g13
g14
NtRp222
(dp223
g17
I1
sg18
g19
((lp224
g143
ag144
ag145
ag146
ag17
ag147
atRp225
sg27
S'GTCCAGTGTGAGGTGCAGCTGGTGGAGTCCGGGGGAGGCTTAGTTCGGCCGGGGGGGTCCCTGAGACTCTCCTGTGGAGCCTCTGGATTCATCTTCAGCACCTACTGGATGCACTGGGTCCGCCACGCTCCAGGGAAGGGGCTAGTGTGGGTCTCACGTATTAATGGTGATGGGAATGATGTAACCTACGCGGACTCCGTGAAGGGCCGATTCACCGTCTCCAGAGACAACGCCAGGAACACGCTGTATCTGCAGATGGACAGTCTGAGAGCCGAGGACACGGCTGTTTATTACTGTGTAAGAGATCAGGGGTCAGCGGACACAGGTGTGGGCACAGCCGTACCCTTTGACTCATGGGGACAGG-GAACCCT--GGTCACCGTCTCCTCAGGTAAG'
p226
sg29
g216
sg30
F4
sg31
I1
sg32
Nsg33
F1
sg34
(lp227
sg48
S'seq3'
p228
sbag12
(g13
g14
NtRp229
(dp230
g17
I22
sg18
g19
((lp231
g143
ag144
ag145
ag146
ag17
ag147
atRp232
sg27
S'GTCCAGTGTGAGGTGCAGCTGGTGGAGTCCGGGGGAGGCTTAGTTCAGCCGGGGGGGTCCCTGAGACTCTCCTGTGGAGCCTCTGGATTCATCTTCAGCACCTACTGGATGCACTGGGTCCGCCACGCTCCAGGGAAGGGGCTAGTGTGGGTCTCACGTATTAATGGTGATGGGAATGATGTAACCTACGCGGACTCCGTGAAGGGCCGATTCACCGTCTCCAGAGACAACGCCAGGAACACGCTGTATCTGCAAATGAACAGTCTGAGAGCCGAGGACACGGCTGTTTATTATTGTGTAAGAGATCAGGGGTCAGCGGACACAGGTGTGGGCACAGCCGTACCCTTTGACTCATGGGGCCAGG-GAACCCT--GGTCACCGTCTCCTCAGGTAAG'
p233
sg29
g216
sg30
F1
sg31
I7
sg32
Nsg33
F1
sg34
(lp234
g12
(g13
g14
NtRp235
(dp236
g17
I15
sg18
g19
((lp237
g143
ag144
ag145
ag146
ag17
ag147
atRp238
sg27
S'GTCCAGTGTGAGGTGCAGTTGGTGGAGTCCGGGGGAGGCTTAGTTCAGCCGGGGGGGTCCCTGAGACTCTCCTGTGGAGCCTCTGGATTCATCTTCAGCACCTACTGGATGCACTGGGTCCGCCACGCTCCAGGGAAGGGGCTAGTGTGGGTCTCACGTATTAATGGTGATGGGAATGATGTAACCTACGCGGACTCCGTGAAGGGCCGATTCACCGTCTCCAGAGACAACGCCAGGAACACGCTGTATCTGCAAATGAACAGTCTGAGAGCCGAGGACACGGCTGTTTATTATTGTGTGAGAGATCAGGGGTCAGCGGACACAGGTGTGGGCACAGCCGTACCCTTTGACTCATGGGGCCAGG-GAACCCT--GGTCACCGTCTCCTCAGGTAAG'
p239
sg29
g229
sg30
F2
sg31
I15
sg32
Nsg33
F1
sg34
(lp240
sg48
S'seq10'
p241
sbasg48
S'seq8'
p242
sbag12
(g13
g14
NtRp243
(dp244
g17
I31
sg18
g19
((lp245
g143
ag144
ag145
ag146
ag17
ag147
atRp246
sg27
S'GTCCAGTGTGAGGTGCAGCTGGTGGAGTCCGGGGGAGGCTTAGTTCAGCCGGGGGGGTCCCTGAGACTCTCCTGTGGAGCCTCTGGATTCATCTTCAGCACCTACTGGATGCACTGGGTCCGCCACGCTCCAGGGAAGGGGCTAGTGTGGGTCTCACGTATTAATGGTGATGGGAATGATGTAACCTACGCGGACTCCGTGAAGGGCCGATTCACCGTCTCCAGAGACAACGCCAGGAACACGCTGTATCTGCAAATGAACAGTCTGAGAGCCGAGGACACGGCTGTTTATTACTGTGTAAGAGATCAGGGGTCAGCGGACACAGGTGTGGGCACAGCCGTGCCCTTTGACTCATGGGGCCAGG-GAACCCT--GGTCACCGTCTCCTCAGGTAAG'
p247
sg29
g216
sg30
F1
sg31
I31
sg32
Nsg33
F1
sg34
(lp248
sg48
S'seq1'
p249
sbasg48
S'seq9'
p250
sbasg48
S'4'
sbasg48
S'6'
sbasg48
S'2'
sbasg48
S'1'
sbasg48
S'vdj'
p251
sbsg4
Nsg7
Nsg6
I2
sbtp252
sb.