(i__main__
CollapsedForest
p1
(dp2
S'n_trees'
p3
I1
sS'frame'
p4
NsS'tree'
p5
NsS'_nparams'
p6
I2
sS'params'
p7
(lp8
F0.49494948969141095
aF0.22448979292589244
asS'forest'
p9
((i__main__
CollapsedTree
p10
(dp11
g5
ccopy_reg
_reconstructor
p12
(cete3.coretype.tree
TreeNode
p13
c__builtin__
object
p14
NtRp15
(dp16
S'partition'
p17
I50
sS'features'
p18
c__builtin__
set
p19
((lp20
S'dist'
p21
aS'name'
p22
aS'sequence'
p23
aS'support'
p24
ag17
aS'frequency'
p25
atRp26
sS'sequence'
p27
S'GGACCTAGCCTCGTGAAACCTTCTCAGACTCTGTCCCTCACCTGTTCTGTCACTGGCGACTCCATCACCAGTGGTTACTGGAACTGGATCCGGAAATTCCCAGGGAATAAACTTGAGTACATGGGGTACATAAGCTACAGTGGTAGCACTTACTACAATCCATCTCTCAAAAGTCGAATCTCCATCACTCGAGACACATCCAAGAACCAGTACTACCTGCAGTTGAATTCTGTGACTACTGAGGACACAGCCACATATTACTGT'
p28
sS'_up'
p29
NsS'_dist'
p30
F0
sS'frequency'
p31
I23
sS'_img_style'
p32
NsS'_support'
p33
F1
sS'_children'
p34
(lp35
g12
(g13
g14
NtRp36
(dp37
g17
I1
sg18
g19
((lp38
g21
ag22
ag23
ag24
ag17
ag25
atRp39
sg27
S'GGACCTAGCCTCGTGAAACCCTCTCAGACTCTGTCCCTCACCTGTTCTGTCACTGGCGACTCCATCACCAGTGGTTACTGGAACTGGATCCGGAAATTCCCAGGGAATAAACTTGAGTACATGGGGTACATAAGCTACAGTGGTAGCACTTACTACAATCCATCTCTCAAAAGTCGAATCTCCATCACTCGAGACACATCCAAGAACCAGTACTACCTGCAGTTGAATTCTGTGACTACTGAGGACACAGCCACATATTACTGT'
p40
sg29
g15
sg30
F1
sg31
I1
sg32
Nsg33
F1
sg34
(lp41
sS'name'
p42
S'seq2'
p43
sbag12
(g13
g14
NtRp44
(dp45
g17
I1
sg18
g19
((lp46
g21
ag22
ag23
ag24
ag17
ag25
atRp47
sg27
S'GGACCTAGCCTCGTGAAACCTTCTCAGACTCTGTCCCTCACCTGTTCTGTCACTGGCGACTCCATCACCAGTGGTTACTGGAACTGGATCCGGAAATTCCCAGGGAATAAACTTGAGTACATGGGGTACATAACCTACAGTGGTAGCACTTACTACAATCCATCTCTCAAAAGTCGAATCTCCATCACTCGAGACACATCCAAGAACCAGTACTACCTGCAGTTGAATTCTGTGACTACTGAGGACACAGCCACATATTACTGT'
p48
sg29
g15
sg30
F1
sg31
I1
sg32
Nsg33
F1
sg34
(lp49
sg42
S'seq13'
p50
sbag12
(g13
g14
NtRp51
(dp52
g17
I1
sg18
g19
((lp53
g21
ag22
ag23
ag24
ag17
ag25
atRp54
sg27
S'GGACCTAGCCTCGTGAAACCTTCTCAGACTCTGTCCCTCACCTGTTCTGTCACTGGCGACTCCATCACCAGTGGTTACTGGAACTGGATCCGGAAATTCCCAGGGAATAAACTTGAGTACATGGGGTACATAAGCTACAGTGGTAGCACTTACTACAATCCATCTCTCAAAAGTCGAATCTCCATCACTCGAGACACATCCAAGAACCAGTACTACCTGCAGGTGAATTCTGTGACTACTGAGGACACAGCCACATATTACTGT'
p55
sg29
g15
sg30
F1
sg31
I1
sg32
Nsg33
F1
sg34
(lp56
sg42
S'seq10'
p57
sbag12
(g13
g14
NtRp58
(dp59
g17
I1
sg18
g19
((lp60
g21
ag22
ag23
ag24
ag17
ag25
atRp61
sg27
S'GGACCTAGCCTCGTGAAACCTTCTCAGACTCTGTCCCTCACCTGTTCTGTCACTGGCGACTCCATCACCAGTGGTTACTGGAACTGGATCCGGAAATTCCCAGGGAATAAACTTGAGTACATGGGGTACATAAGCTACAGTGGTAGCACTTACTACAATCCATCTCTCAAAAGTCGAATCTCCATCACTCGAGACACATCCAAGAACCAGTACTACCTGCAGTTGAATTCTGTGAATACTGAGGACACAGCCACATATTACTGT'
p62
sg29
g15
sg30
F1
sg31
I1
sg32
Nsg33
F1
sg34
(lp63
sg42
S'seq17'
p64
sbag12
(g13
g14
NtRp65
(dp66
g17
I1
sg18
g19
((lp67
g21
ag22
ag23
ag24
ag17
ag25
atRp68
sg27
S'GGACCTAGCCTCGTGAAACCTTCTCAGACTCTGTCCCTCACCTGTTCTGTCACTGGCGACTCCATCACCAGTGGTTACTGGAACTGGATCCGGAAATTCCCAGGGAATAAACTTGAGTACATGGGGTACATAAGCTACAGTGGTAGCACTTACTACAATCCATCTCTCAAAAGTCGAATCTCCATCACTCGAGACACATCCAAGAACCAGTACTACCTGCAGTTGAATTCTGTGACTAATGAGGACACAGCCACATATTACTGT'
p69
sg29
g15
sg30
F1
sg31
I1
sg32
Nsg33
F1
sg34
(lp70
sg42
S'seq1'
p71
sbag12
(g13
g14
NtRp72
(dp73
g17
I1
sg18
g19
((lp74
g21
ag22
ag23
ag24
ag17
ag25
atRp75
sg27
S'GGACCTAGCCTCGTGAAACCTTCTCAGACTCTGTCCCTCACCTGTTCTGTCACTGGCGACTCCATCACCAGTGGTTACTGGAACTGGATCCGGAAATTCCCAGGGAATAAACTTGAGTACATGGGGTACATAAGCTACAGTGGTAGCACTTACTACAATCCATCTCTCAAAAGTCGAATCTCCATCACTCGAGACACATCCAAGAACCAGTACTACCTGCAGTTGAATTCTGTGACTACAGAGGACACAGCCACATATTACTGT'
p76
sg29
g15
sg30
F1
sg31
I1
sg32
Nsg33
F1
sg34
(lp77
sg42
S'seq15'
p78
sbag12
(g13
g14
NtRp79
(dp80
g17
I1
sg18
g19
((lp81
g21
ag22
ag23
ag24
ag17
ag25
atRp82
sg27
S'GGACCTAGCCTCGTGAAACCTTCTCAGACTCTGTCCCTCACCTGTTCTGTCACTGGCGACTCCATCACCAGTGGTTACTGGAACTGGATCCGGAAATTCCCAGGGAATAAACTTGAGTACATGGGGTACATAAGCTACAGTGGTAGCACTTACTACAATCCATCTCTCAAAAGTCGAATCTCCATCACTCGAGACACATCCAAGAACCAGTACTACCTGCAGTTGAATTCTGTGACTACTGAGGACACAGCCACATACTACTGT'
p83
sg29
g15
sg30
F1
sg31
I1
sg32
Nsg33
F1
sg34
(lp84
sg42
S'seq21'
p85
sbag12
(g13
g14
NtRp86
(dp87
g17
I1
sg18
g19
((lp88
g21
ag22
ag23
ag24
ag17
ag25
atRp89
sg27
S'GGACCTAGCCTCGTGAAACCTTCTCAGACTCTGTCCCTCACCTGTTCTGTCACTGGCGACTCCATCACCAGTGGTTACTGGAACTGGATCCGGAGATTCCCAGGGAATAAACTTGAGTACATGGGGTACATAAGCTACAGTGGTAGCACTTACTACAATCCATCTCTCAAAAGTCGAATCTCCATCACTCGAGACACATCCAAGAACCAGTACTACCTGCAGTTGAATTCTGTGACTACTGAGGACACAGCCACATATTACTGT'
p90
sg29
g15
sg30
F1
sg31
I1
sg32
Nsg33
F1
sg34
(lp91
sg42
S'seq5'
p92
sbag12
(g13
g14
NtRp93
(dp94
g17
I1
sg18
g19
((lp95
g21
ag22
ag23
ag24
ag17
ag25
atRp96
sg27
S'GGACCTAGCCTCGTGAAACCTTCTCAGACTCTGTCCCTCACCTGTTCTGTCACTGGCGACTCCATCACCAGTGGTTACTGGAACTGGATCCTGAAATTCCCAGGGAATAAACTTGAGTACATGGGGTACATAAGCTACAGTGGTAGCACTTACTAGAATCCATCTCTCAAAAGTCGAATCTCCATCACTCGAGACACATCCAAGAACCAGTACTACCTGCAGTTGAATTCTGTGACTACTGAGGACACAGCCACATATTACTGT'
p97
sg29
g15
sg30
F2
sg31
I1
sg32
Nsg33
F1
sg34
(lp98
sg42
S'seq16'
p99
sbag12
(g13
g14
NtRp100
(dp101
g17
I2
sg18
g19
((lp102
g21
ag22
ag23
ag24
ag17
ag25
atRp103
sg27
S'GGACCTAGCCTCGTGAAACCTTCTCAGACTCTGTCCCTCACCTGTTCTGTCACTGGCGACTCCATCACCAGTGGTTACTGGAACTGGATCCGGAAATTCCCAGGGAATAAACTTGAGTACATGGGATACATAAGCTACAGTGGTAGCACTTACTACAATCCATCTCTCAAAAGTCGGATCTCCATCACTCGAGACACATCCAAGAACCAGTACTACCTGCAGTTGAATTCTGTGACTACTGAGGACACAGCCACATATTACTGT'
p104
sg29
g15
sg30
F2
sg31
I1
sg32
Nsg33
F1
sg34
(lp105
g12
(g13
g14
NtRp106
(dp107
g17
I1
sg18
g19
((lp108
g21
ag22
ag23
ag24
ag17
ag25
atRp109
sg27
S'GGACCTAGCCTCGTGAAACCTTCTCAGACTCTGTCCCTCACCTGTTCTGTCACTGGCGACTCCATCACCAGTGGTTACTGGAAATGGATCCGGAAATTCCCAGGGAATAAACTTGAGTACATGGGATACATAAGCTACAGTGGTAGCACTTACTACAATCCATCTCTCAAAAGTCGGATCTCCATCACTCGAGACACATCCAAGAACCAGTACTACCTGCAGTTGAATTCTGTGACTACTGAGGACACAGCCACATATTACTGT'
p110
sg29
g100
sg30
F1
sg31
I1
sg32
Nsg33
F1
sg34
(lp111
sg42
S'seq6'
p112
sbasg42
S'seq20'
p113
sbag12
(g13
g14
NtRp114
(dp115
g17
I2
sg18
g19
((lp116
g21
ag22
ag23
ag24
ag17
ag25
atRp117
sg27
S'GGACCTAGCCTCGTGAAACCTTCTCAGACTCTGTCCCTCACCTGTTCTGTCACTGGCGACTCCATCACCAGTGGTTACTGGAACTGGATCCGGAAATTCCCAGGGAATAAACTTGAGTACATGGGGTACATAAGCTACAGTGGTAGCACTTACTACAATCCATCTCTCAAAAGTCGAATCTCCATCACTCGAGACACATCCAAGATCCAGTACTACCTGCAGTTGAATTCTGTGACTACTGAGGACACAGCCACATATTACTGT'
p118
sg29
g15
sg30
F1
sg31
I2
sg32
Nsg33
F1
sg34
(lp119
sg42
S'seq4'
p120
sbag12
(g13
g14
NtRp121
(dp122
g17
I2
sg18
g19
((lp123
g21
ag22
ag23
ag24
ag17
ag25
atRp124
sg27
S'GGACCTAGCCTCGTGAAACCTTCTCAGACTCTGTCCCTCACCTGTTCTGTCACTGGCGACTCCATCACCAGTGGTTACTGGAACTGGATCCGGAAATTCCCAGGGAATAAACTTGAGTACATGGGGTACATAAGCTACAGTGGTAGCACTTACTACAATCCATCTCTCAAAAGTCGAATCTCCATCACTCGAGGCACATCCAAGAACCAGTACTACCTGCAGTTGAATTCTGTGACTACTGAGGACACAGCCACATATTACTGT'
p125
sg29
g15
sg30
F1
sg31
I2
sg32
Nsg33
F1
sg34
(lp126
sg42
S'seq3'
p127
sbag12
(g13
g14
NtRp128
(dp129
g17
I5
sg18
g19
((lp130
g21
ag22
ag23
ag24
ag17
ag25
atRp131
sg27
S'GGACCTAGCCTCGTGAAACCTTCTCAGACTCTGTCCCTCACCTGTTCTGTCACTGGCGACTCCATCACCAGTGGTTACTGGAACTGGATCCGGAAGTTCCCAGGGAATAAACTTGAGTACATGGGGTACATAAGCTACAGTGGTAGCACTTACTACAATCCATCTCTCAAAAGTCGAATCTCCATCACTCGAGACACATCCAAGAACCAGTACTACCTGCAGTTGAATTCTGTGACTACTGAGGACACAGCCACATATTACTGT'
p132
sg29
g15
sg30
F1
sg31
I1
sg32
Nsg33
F1
sg34
(lp133
g12
(g13
g14
NtRp134
(dp135
g17
I4
sg18
g19
((lp136
g21
ag22
ag23
ag24
ag17
ag25
atRp137
sg27
S'GGACCTAGCCTCGTGAAACCTTCTCAGACTCTGTCCCTCACCTGTTCTGTCACTGGCGACTCCATCACCAGTGGTTACTGGAACTGGATCCGGAAGTTCCCAGGGAATAAACTTGAGTACATGGGGTACATAAGCTACAGTGGTAGCACTTACTACAATCCATCTCTCAAAAGTCGAATCTCCATCACTCGAGACACATCCAAGAACCAGTATTACCTGCAGTTGAATTCTGTGACTACTGAGGACACAGCCACATATTACTGT'
p138
sg29
g128
sg30
F1
sg31
I3
sg32
Nsg33
F1
sg34
(lp139
g12
(g13
g14
NtRp140
(dp141
g17
I1
sg18
g19
((lp142
g21
ag22
ag23
ag24
ag17
ag25
atRp143
sg27
S'GGACCTAGCCTCGTGAAACCTTCTCAGACTCTGTCCCTCACCTGTTCTGTCACTGGCGACTCCATCACCAGTGGTTACTGGAACTGGATCCGGAAGTTCCCAGGGAATAAACTTGAGTACATGGGGTACATGAGCTACAGTGGTAGCACTTACTACAATCCATCTCTCAAAAGTCGAATCTCCATCACTCGAGACACATCCAAGAACCAGTATTACCTGCAGTTGAATTCTGTGACTACTGAGGACACAGCCACATATTACTGT'
p144
sg29
g134
sg30
F1
sg31
I1
sg32
Nsg33
F1
sg34
(lp145
sg42
S'seq8'
p146
sbasg42
S'seq7'
p147
sbasg42
S'seq18'
p148
sbag12
(g13
g14
NtRp149
(dp150
g17
I7
sg18
g19
((lp151
g21
ag22
ag23
ag24
ag17
ag25
atRp152
sg27
S'GGACCTAGCCTCGTGAAACCTTCTCAGACTCTGTCCCTCACCTGTTCTGTCACTGGCGACTCCATCACCAGTGGTTACTGGAACTGGATCCGGAAATTCCCAGGGAATACACTTGAGTACATGGGGTACATAAGCTACAGTGGTAGCACTTACTACAATCCATCTCTCAAAAGTCGAATCTCCATCACTCGAGACACATCCAAGAACCAGTACTACCTGCAGTTGAATTCTGTGACTACTGAGGACACAGCCACATATTACTGT'
p153
sg29
g15
sg30
F1
sg31
I3
sg32
Nsg33
F1
sg34
(lp154
g12
(g13
g14
NtRp155
(dp156
g17
I2
sg18
g19
((lp157
g21
ag22
ag23
ag24
ag17
ag25
atRp158
sg27
S'GGACCTAGCCTCGTGAAACCTTCTCAGACTCTGTCCCTCACCTGTTCTGTCACTGGCGACTCCATCACCAGTGGTTACTGGAACTGGATCCGGGAATTCCCAGGGAATACACTTGAGTACATGGGGTACATAAGCTACAGTGGTAGCACCTACTACAATCCATCTCTCAAAAGTCGAATCTCCATCACTCGAGACACATCCAAGAACCAGTACTACCTGCAGTTGAATTCTGTGACTACTGAGGACACAGCCACATATTACTGT'
p159
sg29
g149
sg30
F2
sg31
I0
sg32
Nsg33
F1
sg34
(lp160
g12
(g13
g14
NtRp161
(dp162
g17
I1
sg18
g19
((lp163
g21
ag22
ag23
ag24
ag17
ag25
atRp164
sg27
S'GGACCTAGCCTCGTGAAACCTTCTCAGACTCTGTCCCTCACCTGTTCTGTCACTGGCGACTCCATCACCAGTGGTTACTGGAACTGGATCCGGGAATTCCCAGGGAATACACTTGAGTACATGGGGTACATAAGCTACAGTGGTAGCACCTACTACAATCCATCTCTCAAAAGTCGAATCTCCATCACTCGAGACACATCCAAGAACCAGTACTACCTGCAGTTGAATTCTGTGACTACTGAGGAAACAGCCACATATTACTGT'
p165
sg29
g155
sg30
F1
sg31
I1
sg32
Nsg33
F1
sg34
(lp166
sg42
S'seq12'
p167
sbag12
(g13
g14
NtRp168
(dp169
g17
I1
sg18
g19
((lp170
g21
ag22
ag23
ag24
ag17
ag25
atRp171
sg27
S'GGACCTAGCCTCGTGAAACCTTCTCAGACTCTGTCCCTCACCTGTTCTGTCACTGGCGACTCCATCACCAGTGGTTACTGGAACTGGATCCGGGAATTCCCAGGGAATACACTTGAGTGCATGGGGTACATAAGCTACAGTGGTAGCACCTACTACAATCCATCTCTCAAAAGTCGAATCTCCATCACTCGAGACACATCCAAGAACCAGTACTACCTGCAGTTGAATTCTGTGACTACTGAGGACACAGCCACATATTACTGT'
p172
sg29
g155
sg30
F1
sg31
I1
sg32
Nsg33
F1
sg34
(lp173
sg42
S'seq19'
p174
sbasg42
S'6'
sbag12
(g13
g14
NtRp175
(dp176
g17
I2
sg18
g19
((lp177
g21
ag22
ag23
ag24
ag17
ag25
atRp178
sg27
S'GGACCTAGCCTCGTGAAACCTTCTCAGACTCTGTCCCTCACCTGTTGTGTCACTGGCGACTCCATCACCAGTGGTTACTGGAACTGGATCCGGAAATTCCCAGGGAATACACTTGAGTACATGGGGTACATAAGCTACAGTGGTAGCACTTACTACAATCCATCTCTCAAAAGTCGAATCTCCATCACTCGAGACACATCCAAGAACCAGTACTACCTGCAGTTGAATTCTGTGACTACTGAGGACACAGCCACATATTACTGT'
p179
sg29
g149
sg30
F1
sg31
I1
sg32
Nsg33
F1
sg34
(lp180
g12
(g13
g14
NtRp181
(dp182
g17
I1
sg18
g19
((lp183
g21
ag22
ag23
ag24
ag17
ag25
atRp184
sg27
S'GGACCTAGCCTCGTGAAACCTTCTCAGACTCTGTCCCTCACCTGTTGTGTCACTGGCGACTCCATCACCAGTGGTTACTGGAACTGGATCCGGAAATTCCCAGGGAATACACTTGAGTACATGGGGTACATAAGCTACAGTGGTGGCACTTACTACAATCCATCTCTCAAAAGTCGAATCTCCATCACTCGAGACACATCCAAGAACCAGTACTACCTGCAGTTGAATTCTGTGACTACTGAGGACACAGCCACATATTACTGT'
p185
sg29
g175
sg30
F1
sg31
I1
sg32
Nsg33
F1
sg34
(lp186
sg42
S'seq14'
p187
sbasg42
S'seq9'
p188
sbasg42
S'seq11'
p189
sbasg42
S'naive'
p190
sbsg4
Nsg7
Nsg6
I2
sbtp191
sb.