(i__main__
CollapsedTree
p1
(dp2
S'tree'
p3
ccopy_reg
_reconstructor
p4
(cete3.coretype.tree
TreeNode
p5
c__builtin__
object
p6
NtRp7
(dp8
S'terminated'
p9
I00
sS'partition'
p10
I50
sS'features'
p11
c__builtin__
set
p12
((lp13
S'terminated'
p14
aS'dist'
p15
aS'name'
p16
aS'sequence'
p17
aS'support'
p18
ag10
aS'frequency'
p19
aS'time'
p20
atRp21
sS'sequence'
p22
S'GGACCTAGCCTCGTGAAACCTTCTCAGACTCTGTCCCTCACCTGTTCTGTCACTGGCGACTCCATCACCAGTGGTTACTGGAACTGGATCCGGAAATTCCCAGGGAATAAACTTGAGTACATGGGGTACATAAGCTACAGTGGTAGCACTTACTACAATCCATCTCTCAAAAGTCGAATCTCCATCACTCGAGACACATCCAAGAACCAGTACTACCTGCAGTTGAATTCTGTGACTACTGAGGACACAGCCACATATTACTGT'
p23
sS'_up'
p24
NsS'_dist'
p25
F0
sS'frequency'
p26
I23
sS'_img_style'
p27
NsS'time'
p28
I0
sS'_support'
p29
F1
sS'_children'
p30
(lp31
g4
(g5
g6
NtRp32
(dp33
g9
I00
sg10
I1
sg11
g12
((lp34
g14
ag15
ag16
ag17
ag18
ag10
ag19
ag20
atRp35
sg22
S'GGACCTAGCCTCGTGAAACCCTCTCAGACTCTGTCCCTCACCTGTTCTGTCACTGGCGACTCCATCACCAGTGGTTACTGGAACTGGATCCGGAAATTCCCAGGGAATAAACTTGAGTACATGGGGTACATAAGCTACAGTGGTAGCACTTACTACAATCCATCTCTCAAAAGTCGAATCTCCATCACTCGAGACACATCCAAGAACCAGTACTACCTGCAGTTGAATTCTGTGACTACTGAGGACACAGCCACATATTACTGT'
p36
sg24
g7
sg25
F1
sg26
I1
sg27
Nsg28
I7
sg29
F1
sg30
(lp37
sS'name'
p38
S'simcell_97'
p39
sbag4
(g5
g6
NtRp40
(dp41
g9
I00
sg10
I1
sg11
g12
((lp42
g14
ag15
ag16
ag17
ag18
ag10
ag19
ag20
atRp43
sg22
S'GGACCTAGCCTCGTGAAACCTTCTCAGACTCTGTCCCTCACCTGTTCTGTCACTGGCGACTCCATCACCAGTGGTTACTGGAACTGGATCCGGAAATTCCCAGGGAATAAACTTGAGTACATGGGGTACATAACCTACAGTGGTAGCACTTACTACAATCCATCTCTCAAAAGTCGAATCTCCATCACTCGAGACACATCCAAGAACCAGTACTACCTGCAGTTGAATTCTGTGACTACTGAGGACACAGCCACATATTACTGT'
p44
sg24
g7
sg25
F1
sg26
I1
sg27
Nsg28
I7
sg29
F1
sg30
(lp45
sg38
S'simcell_75'
p46
sbag4
(g5
g6
NtRp47
(dp48
g9
I00
sg10
I1
sg11
g12
((lp49
g14
ag15
ag16
ag17
ag18
ag10
ag19
ag20
atRp50
sg22
S'GGACCTAGCCTCGTGAAACCTTCTCAGACTCTGTCCCTCACCTGTTCTGTCACTGGCGACTCCATCACCAGTGGTTACTGGAACTGGATCCGGAAATTCCCAGGGAATAAACTTGAGTACATGGGGTACATAAGCTACAGTGGTAGCACTTACTACAATCCATCTCTCAAAAGTCGAATCTCCATCACTCGAGACACATCCAAGAACCAGTACTACCTGCAGGTGAATTCTGTGACTACTGAGGACACAGCCACATATTACTGT'
p51
sg24
g7
sg25
F1
sg26
I1
sg27
Nsg28
I7
sg29
F1
sg30
(lp52
sg38
S'simcell_84'
p53
sbag4
(g5
g6
NtRp54
(dp55
g9
I00
sg10
I1
sg11
g12
((lp56
g14
ag15
ag16
ag17
ag18
ag10
ag19
ag20
atRp57
sg22
S'GGACCTAGCCTCGTGAAACCTTCTCAGACTCTGTCCCTCACCTGTTCTGTCACTGGCGACTCCATCACCAGTGGTTACTGGAACTGGATCCGGAAATTCCCAGGGAATAAACTTGAGTACATGGGGTACATAAGCTACAGTGGTAGCACTTACTACAATCCATCTCTCAAAAGTCGAATCTCCATCACTCGAGACACATCCAAGAACCAGTACTACCTGCAGTTGAATTCTGTGAATACTGAGGACACAGCCACATATTACTGT'
p58
sg24
g7
sg25
F1
sg26
I1
sg27
Nsg28
I7
sg29
F1
sg30
(lp59
sg38
S'simcell_78'
p60
sbag4
(g5
g6
NtRp61
(dp62
g9
I00
sg10
I1
sg11
g12
((lp63
g14
ag15
ag16
ag17
ag18
ag10
ag19
ag20
atRp64
sg22
S'GGACCTAGCCTCGTGAAACCTTCTCAGACTCTGTCCCTCACCTGTTCTGTCACTGGCGACTCCATCACCAGTGGTTACTGGAACTGGATCCGGAAATTCCCAGGGAATAAACTTGAGTACATGGGGTACATAAGCTACAGTGGTAGCACTTACTACAATCCATCTCTCAAAAGTCGAATCTCCATCACTCGAGACACATCCAAGAACCAGTACTACCTGCAGTTGAATTCTGTGACTAATGAGGACACAGCCACATATTACTGT'
p65
sg24
g7
sg25
F1
sg26
I1
sg27
Nsg28
I7
sg29
F1
sg30
(lp66
sg38
S'simcell_81'
p67
sbag4
(g5
g6
NtRp68
(dp69
g9
I00
sg10
I1
sg11
g12
((lp70
g14
ag15
ag16
ag17
ag18
ag10
ag19
ag20
atRp71
sg22
S'GGACCTAGCCTCGTGAAACCTTCTCAGACTCTGTCCCTCACCTGTTCTGTCACTGGCGACTCCATCACCAGTGGTTACTGGAACTGGATCCGGAAATTCCCAGGGAATAAACTTGAGTACATGGGGTACATAAGCTACAGTGGTAGCACTTACTACAATCCATCTCTCAAAAGTCGAATCTCCATCACTCGAGACACATCCAAGAACCAGTACTACCTGCAGTTGAATTCTGTGACTACAGAGGACACAGCCACATATTACTGT'
p72
sg24
g7
sg25
F1
sg26
I1
sg27
Nsg28
I7
sg29
F1
sg30
(lp73
sg38
S'simcell_90'
p74
sbag4
(g5
g6
NtRp75
(dp76
g9
I00
sg10
I1
sg11
g12
((lp77
g14
ag15
ag16
ag17
ag18
ag10
ag19
ag20
atRp78
sg22
S'GGACCTAGCCTCGTGAAACCTTCTCAGACTCTGTCCCTCACCTGTTCTGTCACTGGCGACTCCATCACCAGTGGTTACTGGAACTGGATCCGGAAATTCCCAGGGAATAAACTTGAGTACATGGGGTACATAAGCTACAGTGGTAGCACTTACTACAATCCATCTCTCAAAAGTCGAATCTCCATCACTCGAGACACATCCAAGAACCAGTACTACCTGCAGTTGAATTCTGTGACTACTGAGGACACAGCCACATACTACTGT'
p79
sg24
g7
sg25
F1
sg26
I1
sg27
Nsg28
I7
sg29
F1
sg30
(lp80
sg38
S'simcell_92'
p81
sbag4
(g5
g6
NtRp82
(dp83
g9
I00
sg10
I1
sg11
g12
((lp84
g14
ag15
ag16
ag17
ag18
ag10
ag19
ag20
atRp85
sg22
S'GGACCTAGCCTCGTGAAACCTTCTCAGACTCTGTCCCTCACCTGTTCTGTCACTGGCGACTCCATCACCAGTGGTTACTGGAACTGGATCCGGAAGTTCCCAGGGAATAAACTTGAGTACATGGGGTACATAAGCTACAGTGGTAGCACTTACTACAATCCATCTCTCAAAAGTCGAATCTCCATCACTCGAGACACATCCAAGAACCAGTACTACCTGCAGTTGAATTCTGTGACTACTGAGGACACAGCCACATATTACTGT'
p86
sg24
g7
sg25
F1
sg26
I1
sg27
Nsg28
I7
sg29
F1
sg30
(lp87
sg38
S'simcell_55'
p88
sbag4
(g5
g6
NtRp89
(dp90
g9
I00
sg10
I1
sg11
g12
((lp91
g14
ag15
ag16
ag17
ag18
ag10
ag19
ag20
atRp92
sg22
S'GGACCTAGCCTCGTGAAACCTTCTCAGACTCTGTCCCTCACCTGTTCTGTCACTGGCGACTCCATCACCAGTGGTTACTGGAACTGGATCCGGAGATTCCCAGGGAATAAACTTGAGTACATGGGGTACATAAGCTACAGTGGTAGCACTTACTACAATCCATCTCTCAAAAGTCGAATCTCCATCACTCGAGACACATCCAAGAACCAGTACTACCTGCAGTTGAATTCTGTGACTACTGAGGACACAGCCACATATTACTGT'
p93
sg24
g7
sg25
F1
sg26
I1
sg27
Nsg28
I7
sg29
F1
sg30
(lp94
sg38
S'simcell_63'
p95
sbag4
(g5
g6
NtRp96
(dp97
g9
I00
sg10
I1
sg11
g12
((lp98
g14
ag15
ag16
ag17
ag18
ag10
ag19
ag20
atRp99
sg22
S'GGACCTAGCCTCGTGAAACCTTCTCAGACTCTGTCCCTCACCTGTTCTGTCACTGGCGACTCCATCACCAGTGGTTACTGGAACTGGATCCTGAAATTCCCAGGGAATAAACTTGAGTACATGGGGTACATAAGCTACAGTGGTAGCACTTACTAGAATCCATCTCTCAAAAGTCGAATCTCCATCACTCGAGACACATCCAAGAACCAGTACTACCTGCAGTTGAATTCTGTGACTACTGAGGACACAGCCACATATTACTGT'
p100
sg24
g7
sg25
F2
sg26
I1
sg27
Nsg28
I7
sg29
F1
sg30
(lp101
sg38
S'simcell_96'
p102
sbag4
(g5
g6
NtRp103
(dp104
g9
I00
sg10
I2
sg11
g12
((lp105
g14
ag15
ag16
ag17
ag18
ag10
ag19
ag20
atRp106
sg22
S'GGACCTAGCCTCGTGAAACCTTCTCAGACTCTGTCCCTCACCTGTTCTGTCACTGGCGACTCCATCACCAGTGGTTACTGGAACTGGATCCGGAAATTCCCAGGGAATAAACTTGAGTACATGGGATACATAAGCTACAGTGGTAGCACTTACTACAATCCATCTCTCAAAAGTCGGATCTCCATCACTCGAGACACATCCAAGAACCAGTACTACCTGCAGTTGAATTCTGTGACTACTGAGGACACAGCCACATATTACTGT'
p107
sg24
g7
sg25
F2
sg26
I1
sg27
Nsg28
I6
sg29
F1
sg30
(lp108
g4
(g5
g6
NtRp109
(dp110
g9
I00
sg10
I1
sg11
g12
((lp111
g14
ag15
ag16
ag17
ag18
ag10
ag19
ag20
atRp112
sg22
S'GGACCTAGCCTCGTGAAACCTTCTCAGACTCTGTCCCTCACCTGTTCTGTCACTGGCGACTCCATCACCAGTGGTTACTGGAAATGGATCCGGAAATTCCCAGGGAATAAACTTGAGTACATGGGATACATAAGCTACAGTGGTAGCACTTACTACAATCCATCTCTCAAAAGTCGGATCTCCATCACTCGAGACACATCCAAGAACCAGTACTACCTGCAGTTGAATTCTGTGACTACTGAGGACACAGCCACATATTACTGT'
p113
sg24
g103
sg25
F1
sg26
I1
sg27
Nsg28
I7
sg29
F1
sg30
(lp114
sg38
S'simcell_74'
p115
sbasg38
S'simcell_73'
p116
sbag4
(g5
g6
NtRp117
(dp118
g9
I00
sg10
I2
sg11
g12
((lp119
g14
ag15
ag16
ag17
ag18
ag10
ag19
ag20
atRp120
sg22
S'GGACCTAGCCTCGTGAAACCTTCTCAGACTCTGTCCCTCACCTGTTCTGTCACTGGCGACTCCATCACCAGTGGTTACTGGAACTGGATCCGGAAATTCCCAGGGAATAAACTTGAGTACATGGGGTACATAAGCTACAGTGGTAGCACTTACTACAATCCATCTCTCAAAAGTCGAATCTCCATCACTCGAGACACATCCAAGATCCAGTACTACCTGCAGTTGAATTCTGTGACTACTGAGGACACAGCCACATATTACTGT'
p121
sg24
g7
sg25
F1
sg26
I2
sg27
Nsg28
I5
sg29
F1
sg30
(lp122
sg38
(S'simcell_64'
S'simcell_65'
tp123
sbag4
(g5
g6
NtRp124
(dp125
g9
I00
sg10
I2
sg11
g12
((lp126
g14
ag15
ag16
ag17
ag18
ag10
ag19
ag20
atRp127
sg22
S'GGACCTAGCCTCGTGAAACCTTCTCAGACTCTGTCCCTCACCTGTTCTGTCACTGGCGACTCCATCACCAGTGGTTACTGGAACTGGATCCGGAAATTCCCAGGGAATAAACTTGAGTACATGGGGTACATAAGCTACAGTGGTAGCACTTACTACAATCCATCTCTCAAAAGTCGAATCTCCATCACTCGAGGCACATCCAAGAACCAGTACTACCTGCAGTTGAATTCTGTGACTACTGAGGACACAGCCACATATTACTGT'
p128
sg24
g7
sg25
F1
sg26
I2
sg27
Nsg28
I6
sg29
F1
sg30
(lp129
sg38
(S'simcell_68'
S'simcell_69'
tp130
sbag4
(g5
g6
NtRp131
(dp132
g9
I00
sg10
I4
sg11
g12
((lp133
g14
ag15
ag16
ag17
ag18
ag10
ag19
ag20
atRp134
sg22
S'GGACCTAGCCTCGTGAAACCTTCTCAGACTCTGTCCCTCACCTGTTCTGTCACTGGCGACTCCATCACCAGTGGTTACTGGAACTGGATCCGGAAGTTCCCAGGGAATAAACTTGAGTACATGGGGTACATAAGCTACAGTGGTAGCACTTACTACAATCCATCTCTCAAAAGTCGAATCTCCATCACTCGAGACACATCCAAGAACCAGTATTACCTGCAGTTGAATTCTGTGACTACTGAGGACACAGCCACATATTACTGT'
p135
sg24
g7
sg25
F2
sg26
I3
sg27
Nsg28
I6
sg29
F1
sg30
(lp136
g4
(g5
g6
NtRp137
(dp138
g9
I00
sg10
I1
sg11
g12
((lp139
g14
ag15
ag16
ag17
ag18
ag10
ag19
ag20
atRp140
sg22
S'GGACCTAGCCTCGTGAAACCTTCTCAGACTCTGTCCCTCACCTGTTCTGTCACTGGCGACTCCATCACCAGTGGTTACTGGAACTGGATCCGGAAGTTCCCAGGGAATAAACTTGAGTACATGGGGTACATGAGCTACAGTGGTAGCACTTACTACAATCCATCTCTCAAAAGTCGAATCTCCATCACTCGAGACACATCCAAGAACCAGTATTACCTGCAGTTGAATTCTGTGACTACTGAGGACACAGCCACATATTACTGT'
p141
sg24
g131
sg25
F1
sg26
I1
sg27
Nsg28
I7
sg29
F1
sg30
(lp142
sg38
S'simcell_60'
p143
sbasg38
(S'simcell_59'
S'simcell_58'
S'simcell_57'
tp144
sbag4
(g5
g6
NtRp145
(dp146
g9
I00
sg10
I7
sg11
g12
((lp147
g14
ag15
ag16
ag17
ag18
ag10
ag19
ag20
atRp148
sg22
S'GGACCTAGCCTCGTGAAACCTTCTCAGACTCTGTCCCTCACCTGTTCTGTCACTGGCGACTCCATCACCAGTGGTTACTGGAACTGGATCCGGAAATTCCCAGGGAATACACTTGAGTACATGGGGTACATAAGCTACAGTGGTAGCACTTACTACAATCCATCTCTCAAAAGTCGAATCTCCATCACTCGAGACACATCCAAGAACCAGTACTACCTGCAGTTGAATTCTGTGACTACTGAGGACACAGCCACATATTACTGT'
p149
sg24
g7
sg25
F1
sg26
I3
sg27
Nsg28
I4
sg29
F1
sg30
(lp150
g4
(g5
g6
NtRp151
(dp152
g9
I00
sg10
I2
sg11
g12
((lp153
g14
ag15
ag16
ag17
ag18
ag10
ag19
ag20
atRp154
sg22
S'GGACCTAGCCTCGTGAAACCTTCTCAGACTCTGTCCCTCACCTGTTCTGTCACTGGCGACTCCATCACCAGTGGTTACTGGAACTGGATCCGGGAATTCCCAGGGAATACACTTGAGTACATGGGGTACATAAGCTACAGTGGTAGCACCTACTACAATCCATCTCTCAAAAGTCGAATCTCCATCACTCGAGACACATCCAAGAACCAGTACTACCTGCAGTTGAATTCTGTGACTACTGAGGACACAGCCACATATTACTGT'
p155
sg24
g145
sg25
F2
sg26
I0
sg27
Nsg28
I6
sg29
F1
sg30
(lp156
g4
(g5
g6
NtRp157
(dp158
g9
I00
sg10
I1
sg11
g12
((lp159
g14
ag15
ag16
ag17
ag18
ag10
ag19
ag20
atRp160
sg22
S'GGACCTAGCCTCGTGAAACCTTCTCAGACTCTGTCCCTCACCTGTTCTGTCACTGGCGACTCCATCACCAGTGGTTACTGGAACTGGATCCGGGAATTCCCAGGGAATACACTTGAGTACATGGGGTACATAAGCTACAGTGGTAGCACCTACTACAATCCATCTCTCAAAAGTCGAATCTCCATCACTCGAGACACATCCAAGAACCAGTACTACCTGCAGTTGAATTCTGTGACTACTGAGGAAACAGCCACATATTACTGT'
p161
sg24
g151
sg25
F1
sg26
I1
sg27
Nsg28
I7
sg29
F1
sg30
(lp162
sg38
S'simcell_98'
p163
sbag4
(g5
g6
NtRp164
(dp165
g9
I00
sg10
I1
sg11
g12
((lp166
g14
ag15
ag16
ag17
ag18
ag10
ag19
ag20
atRp167
sg22
S'GGACCTAGCCTCGTGAAACCTTCTCAGACTCTGTCCCTCACCTGTTCTGTCACTGGCGACTCCATCACCAGTGGTTACTGGAACTGGATCCGGGAATTCCCAGGGAATACACTTGAGTGCATGGGGTACATAAGCTACAGTGGTAGCACCTACTACAATCCATCTCTCAAAAGTCGAATCTCCATCACTCGAGACACATCCAAGAACCAGTACTACCTGCAGTTGAATTCTGTGACTACTGAGGACACAGCCACATATTACTGT'
p168
sg24
g151
sg25
F1
sg26
I1
sg27
Nsg28
I7
sg29
F1
sg30
(lp169
sg38
S'simcell_99'
p170
sbasg38
S'simcell_52'
p171
sbag4
(g5
g6
NtRp172
(dp173
g9
I00
sg10
I2
sg11
g12
((lp174
g14
ag15
ag16
ag17
ag18
ag10
ag19
ag20
atRp175
sg22
S'GGACCTAGCCTCGTGAAACCTTCTCAGACTCTGTCCCTCACCTGTTGTGTCACTGGCGACTCCATCACCAGTGGTTACTGGAACTGGATCCGGAAATTCCCAGGGAATACACTTGAGTACATGGGGTACATAAGCTACAGTGGTAGCACTTACTACAATCCATCTCTCAAAAGTCGAATCTCCATCACTCGAGACACATCCAAGAACCAGTACTACCTGCAGTTGAATTCTGTGACTACTGAGGACACAGCCACATATTACTGT'
p176
sg24
g145
sg25
F1
sg26
I1
sg27
Nsg28
I6
sg29
F1
sg30
(lp177
g4
(g5
g6
NtRp178
(dp179
g9
I00
sg10
I1
sg11
g12
((lp180
g14
ag15
ag16
ag17
ag18
ag10
ag19
ag20
atRp181
sg22
S'GGACCTAGCCTCGTGAAACCTTCTCAGACTCTGTCCCTCACCTGTTGTGTCACTGGCGACTCCATCACCAGTGGTTACTGGAACTGGATCCGGAAATTCCCAGGGAATACACTTGAGTACATGGGGTACATAAGCTACAGTGGTGGCACTTACTACAATCCATCTCTCAAAAGTCGAATCTCCATCACTCGAGACACATCCAAGAACCAGTACTACCTGCAGTTGAATTCTGTGACTACTGAGGACACAGCCACATATTACTGT'
p182
sg24
g172
sg25
F1
sg26
I1
sg27
Nsg28
I7
sg29
F1
sg30
(lp183
sg38
S'simcell_103'
p184
sbasg38
S'simcell_104'
p185
sbasg38
(S'simcell_102'
S'simcell_100'
S'simcell_101'
tp186
sbasg38
(S'simcell_1'
S'simcell_93'
S'simcell_94'
S'simcell_79'
S'simcell_72'
S'simcell_71'
S'simcell_70'
S'simcell_77'
S'simcell_76'
S'simcell_95'
S'simcell_66'
S'simcell_67'
S'simcell_61'
S'simcell_62'
S'simcell_56'
S'simcell_86'
S'simcell_87'
S'simcell_85'
S'simcell_82'
S'simcell_83'
S'simcell_80'
S'simcell_91'
S'simcell_88'
S'simcell_89'
tp187
sbsS'frame'
p188
NsS'params'
p189
NsS'_nparams'
p190
I2
sb.