(i__main__
CollapsedForest
p1
(dp2
S'n_trees'
p3
I2
sS'frame'
p4
NsS'tree'
p5
NsS'_nparams'
p6
I2
sS'params'
p7
(lp8
F0.48780490594803139
aF0.79225243916086108
asS'forest'
p9
((i__main__
CollapsedTree
p10
(dp11
g5
ccopy_reg
_reconstructor
p12
(cete3.coretype.tree
TreeNode
p13
c__builtin__
object
p14
NtRp15
(dp16
S'partition'
p17
I20
sS'features'
p18
c__builtin__
set
p19
((lp20
S'dist'
p21
aS'name'
p22
aS'sequence'
p23
aS'support'
p24
ag17
aS'frequency'
p25
atRp26
sS'sequence'
p27
S'GAGGTGGAGCTGATAGAGCCCACAGAGGACCTGAGACAACCTGGGAAGTTCCTGAGACTCTCCTGTGTAGCCTCTAGATTCGCCTTCAGTAGCTTCTGAATGAGCCCAGTTCACCAGTCTGCAGGCAAGGGGCTGGAGTGAGTAATAGATATAAAAGATGATGGAAGTCAGATACACCATGCAGACTCTGTGAAGGGCAGATTCTCCATCTCCAAAGACAATGCTAAGAACTCTCTGTATCTGCAAATGAACAGTCAGAGAACTGAGGACATGGCTGTGTATGGCTGTACATAAGGTTGGT--ATAACTGGAACAAC--GCTGAATACTTCCAGCACTGGGGCCAGGGCACCCTGGTCACCGTCTCCTCAG'
p28
sS'_up'
p29
NsS'_dist'
p30
F0
sS'frequency'
p31
I0
sS'_img_style'
p32
NsS'_support'
p33
F1
sS'_children'
p34
(lp35
g12
(g13
g14
NtRp36
(dp37
g17
I20
sg18
g19
((lp38
g21
ag22
ag23
ag24
ag17
ag25
atRp39
sg27
S'GAGGTGGAGCTGATAGAGCCCACAGAGGACCTGAGACAACCTGGGAAGTTCCTGAGACTCTCCTGTGTAGCCTCTAGATTCGCCTTCAGTAGCTTCTGAATGAGCCCAGTTCACCAGTCTGCAGGCAAGGGGCTGGAGTGAGTAATAGATATAAAAGATGATGGAAGTCAGATACACCATGCAGACTCTGTGAAGGGCAGATTCTCCATCTCCAAAGACAATGCTAAGAACTCTCTGTATCTGCAAATGAACAGTCAGAGAACTGAGGACATGGCTGTGTATGGCTGTACATAAGGTTGGT--ATAACTGGAACAACCCGCTGAATACTTCCAGCACTGGGGCCAGGGCACCCTGGTCACCGTCTCCTCAG'
p40
sg29
g15
sg30
F2
sg31
I1
sg32
Nsg33
F1
sg34
(lp41
g12
(g13
g14
NtRp42
(dp43
g17
I6
sg18
g19
((lp44
g21
ag22
ag23
ag24
ag17
ag25
atRp45
sg27
S'GAGGTGGAGCTGATAGAGCCCACAGAGGACCTGAGACAACCTGGGAAGTTCCTGAGACTCTCCTGTGTAGCCTCTAGATTCGCCTTCAGTAGCTTCTGAATGAGCCCAGTTCACCAGTCTGCAGGCAAGGGGCTGGAGTGAATAATAGATATAAAAGATGATGGAAGTCAGATACACCATGCAGACTCTGTGAAGGGCAGATTCTCCATCTCCAAAGACAATGCTAAGAACTCTCTGTATCTGCAAATGAACAGTCAGAGAACTGAGGACATGGCTGTGTATGGCTGTACATAAGGTTGGTA--TAACTGGAACAACCCGCTGAATACTTCCAGCACTGGGGCCAGGGCACCCTGGTCACCGTCTCCTCAG'
p46
sg29
g36
sg30
F3
sg31
I0
sg32
Nsg33
F1
sg34
(lp47
g12
(g13
g14
NtRp48
(dp49
g17
I1
sg18
g19
((lp50
g21
ag22
ag23
ag24
ag17
ag25
atRp51
sg27
S'GAGGTTGAGCTCATAGAGCCCACAGAGGAACTGAGACAACCTGGGAAGTTCCTGAGACTCTCCTGTGTAGCCTCTAGGTTCGCCTTCAGTGGGTTCTGAATGAGCCCAGTTCACCAGTCTGCAAGCAAGGGGCTGGAGTGAATAATAGATATAAAAGATGATGGCAGTCAGGTACACCATGCAGACTCTGTGAAGGGCAGATTCTCCATCCCCAAAGACAACGCTAAGAACTCTCTGTATCTGCAAATGAACAGTCAGAGAAGTGAGGACATGGCTGTGTACGGCTGTACATAAGGTTGGTA--TAACTGGAACAACCCGCTGAATACTTCCAGCACTGGGGCCAGGGCACCCTGGTCACCGTCTCCTCAG'
p52
sg29
g42
sg30
F13
sg31
I1
sg32
Nsg33
F1
sg34
(lp53
sS'name'
p54
S'seq4'
p55
sbag12
(g13
g14
NtRp56
(dp57
g17
I5
sg18
g19
((lp58
g21
ag22
ag23
ag24
ag17
ag25
atRp59
sg27
S'GAGATGGAGCTGATAAAGCCCACAGAGGACCTGAGACAACCTGGGAAGTTCCTGAGACTCTCCTGTGTAGCCTCTAGATTCGCCTTCAGTAGCTTCTGTATGAGCCCAGTTAATCAGTCTGCAGTCAAGGGGCTGGAGTGATTAATAGATATAAAAGATGATGGAAGTCAGATACTCCACGCATACTCTGTGAAGGGCAGATTCTCCGTCTCCAAAGAAAATGCTAAGAACTCTCTGTATCTGCAAATGAACATTCAGAGAACTGAGGACATGGCTGTGTATGACTGTACATAAGGTTGGTA--TAACTGGAGCAACCCGCTGAATACTCCCAGCACTGGGGCAAGGGCACCCAGGTCACCGTCTCCTCAG'
p60
sg29
g42
sg30
F18
sg31
I0
sg32
Nsg33
F1
sg34
(lp61
g12
(g13
g14
NtRp62
(dp63
g17
I1
sg18
g19
((lp64
g21
ag22
ag23
ag24
ag17
ag25
atRp65
sg27
S'GAGATGGAGCTGATAAAGCCCACAGAGGACGTGAGACAACCTGTGCAGTTCCTGAGACGATCCGGTGTAGCCTCTAGATTCGCCTTCAGTAGCCCCAGTATGAGCCCAGTTACTCAGTCTGCAGTCAAGGGGCTGGAGAGATTAATAGATATAAAAGATGATGGAAGTCAGATACTCCACGCATACTCTGTGAAGGGCAGATTCTCCGTCTCCAAAGAAAATGCTAAGAACTCGCGGTATCTGCAAATGAACATTCAGAAAACTGAGGACATGGCTGTGTATGACTGTACGTAAGGTTGGTA--TAACTGTAGCAACCCGCTGAATACTCCCAGCTCTGGGGCAAGGGCACCCAGGTCACTGTCTCCTCAG'
p66
sg29
g56
sg30
F18
sg31
I1
sg32
Nsg33
F1
sg34
(lp67
sg54
S'seq10'
p68
sbag12
(g13
g14
NtRp69
(dp70
g17
I4
sg18
g19
((lp71
g21
ag22
ag23
ag24
ag17
ag25
atRp72
sg27
S'GAGATGGAGCTGATAAAGCCCACAGAGGACCTGAGACAACCTGGGAAGTTCCTGAGACTCTCCTGTGTAGCCTCTAGATTCGCCTTCAGTAGCTTCTGTATGAGCCCAGTTAATCAGTCTGCAGTCAAGGGGCTGGAGTCATTAATAGATATAAAAGATGATGGAAGTCAGATACTCCACGCATACTCTGTGAAGGGCAGATTCTCCGTCTCCAAAGAAAATGCTAAGAACTCTCTGTATCTGCAAATGAACATTCAGAGAACTGAGGACATGGCTGTGTATGACTGTACATAAGGTTGGTA--TAACTGGAGCAACCCGCTGAATACTCCCAGCACTGGGGCAAGGGCACCCAGGTCACCGTCTCCTCAG'
p73
sg29
g56
sg30
F1
sg31
I1
sg32
Nsg33
F1
sg34
(lp74
g12
(g13
g14
NtRp75
(dp76
g17
I3
sg18
g19
((lp77
g21
ag22
ag23
ag24
ag17
ag25
atRp78
sg27
S'GAGATGGAGCAAACAAAGCCCACAGAGGACCTGAGACAACCAGGGAAGTTCCTGAGACTCTCCTGTGTAGCGTCTAGATTCGCCTTCAGTAGCTTCTGTATGAGCCCAGTTAATCAGTCTGCAGTCAAGGGGCTGGAGTCATTAATAGATATAAAAGATGATGGAAGTCAGATTCTCCACGCATACTCTGTGAAGGGCAGATTCTCCGTCTCCAACGAAAATGCCAAGAACTCTCTGTATCCGCAAATGAACATACAGAGAACTGAGGACATGGCTGTGTAGGACTGTATATTAGGTTGGTA--TAACTGGAGCAACCCGCTGAATACTCCCAGCACTGGGGCAAGGGCACCCCGGTCACCGGCTCCTCAG'
p79
sg29
g69
sg30
F15
sg31
I1
sg32
Nsg33
F1
sg34
(lp80
g12
(g13
g14
NtRp81
(dp82
g17
I2
sg18
g19
((lp83
g21
ag22
ag23
ag24
ag17
ag25
atRp84
sg27
S'GAGATGGAGCAAACAAAGCCCACAGAGGACCTGAGACAACCAGGGAAGTTCCTGAGACTCTCCAGTGTAGCGTCTAGATTCGCCTTCAGTAGCTTCTGTATGAGCCCAGTGAATCAGTCTGCAGTCAAGGGGCTGGAGTAATTAATAGATATAAAAGATGATGGAAGTCAGATTCTCCACGCATACTCTGTGAAGCGCAGATTCTCCGTCTCCAACGAAAATGCCAAGAACTCTCTGTATCCGCAAATGAACCTACATAGAACTGAGGACATGGCTGTGTAGGAGTGTATATTAGATTGGTA--TAACTGGAGCAACCCGCTGAATACTCCCAGCACTGGGGCAAGGGCACACCGCTCACCGGCTCCTCAG'
p85
sg29
g75
sg30
F10
sg31
I0
sg32
Nsg33
F1
sg34
(lp86
g12
(g13
g14
NtRp87
(dp88
g17
I1
sg18
g19
((lp89
g21
ag22
ag23
ag24
ag17
ag25
atRp90
sg27
S'GAGATGGAGCAAACAAAGACCACAGAGGACCTGAGACAACCAGGGAAGTTCCTGAGACTCTCCAGTGTAGCGTCTAGATTCGCCTTCAGTAGCTTCTGTATGAGCCCAGTGAATCAGTCTGCAGTCAAGGGGCTGGCGTAATTAATAGACATAAAAGATGATGAAAGTCAGATTCTCCACGCATACACTGTGGAGCGAAGATTCTCCGTCTCCAACGAAAACGCCAAGAACTCTCTGTATCCGCAAATAAAACTACATAGAACTGAGGATATGCCTGTGTAGGAGTGTATATTAGATTGGTA--TAACTGGAGGATCCCGCTGATTCCTCCCAGCACTCGGGCAAGGGCACACCGCTCACCGGCTCCTCAG'
p91
sg29
g81
sg30
F17
sg31
I1
sg32
Nsg33
F1
sg34
(lp92
sg54
S'seq11'
p93
sbag12
(g13
g14
NtRp94
(dp95
g17
I1
sg18
g19
((lp96
g21
ag22
ag23
ag24
ag17
ag25
atRp97
sg27
S'GAGATGGAGCAAACAAAGCCCACAGTGGACCTGAGACAACCAGGGAAGTTCCTGAGACTCTCCAGTGTAGCGTCTAGATTCGCCTTCAGTAGCTTCTGTATGAGCCCAGTGAATCAGTCTGCAGTCAAGGGGCTGGAGTAATTAATAGATATAAAAGATGATGGAAGTCAGATTCTCCACGCATACTCTGTGAAGCGCAGATTCTCCGTCTCCAACGAAAATGCCAAGAACTCTCTGTATCCGCAAATGAACCTACATAGAACTGAGGACATGGCTGTGTAGGAGTGTATATTAGATTGGTA--TAACTGGAGCAACCCGCTGAATACTCCCAGCACTGGGGCAAGGGCACACCGCTCACCGGCTCCTCAG'
p98
sg29
g81
sg30
F1
sg31
I1
sg32
Nsg33
F1
sg34
(lp99
sg54
S'seq12'
p100
sbasg54
S'11'
p101
sbasg54
S'seq3'
p102
sbasg54
S'seq2'
p103
sbasg54
S'9'
sbasg54
S'3'
sbag12
(g13
g14
NtRp104
(dp105
g17
I13
sg18
g19
((lp106
g21
ag22
ag23
ag24
ag17
ag25
atRp107
sg27
S'GAGGTGGAGCTGATAGAGCCCACAGAGGACCTGAGACAACCTGGGAAGTTCCTGAGACTCTCCTGTGTAGCCTCTAGATTCGCCTTCAGTAGCTTCTGAATGAGCCCAGTTCACCAGTCTGCAGGCAAGGGGCTGGAGTGAGTAATAGATATAAAAGATGATGGAAGTCAGATACACCATGCAGACTCTGTGAAGGGCAGATTCTCCATCTCCAAAGACAATGCTAAGAACTCTCTGTATCTGCAAATGAACAGTCAGAGAACTGAGGACATGGCTGTGTATGGCTGTACATAAGGTTTGG--ATAACTGGAACAACACGCTGAATACTTCCAGCACTGGGGCCAGGGCACCCTGGTCACCGTCTCCTCAG'
p108
sg29
g36
sg30
F3
sg31
I0
sg32
Nsg33
F1
sg34
(lp109
g12
(g13
g14
NtRp110
(dp111
g17
I6
sg18
g19
((lp112
g21
ag22
ag23
ag24
ag17
ag25
atRp113
sg27
S'GAGGTGGAGCTGATAGAGCCCACAGAGGACCTGAGACAACCTGGGAAGTTCCTGAGACTCTCCTGTGTAGCCTCTAGATTCGCCTTCAGTAGCTTCTGAATGAGCCCAGTTCACCAGTCTGCAGGCAAGGGGCTGGAGTGAGTAATAGATATAAAAGATGATGGAAGTCAGATACACCATGCAGACTCTGTGAAGGGCAGATTCTCCATCTCCAAAGACAATGCTAAGAACTCTCTGTATCTGCAAATGAACAGTCAGAGAACTGAGGACATGGCTGTGTATGGCTGTACATAAGGTTCGGGTATAACTGGAACAACATGCTGAATACTTCCAGCACTGGGGCCAGGGCACCCTGGTCACCGTCTCCTCAG'
p114
sg29
g104
sg30
F4
sg31
I1
sg32
Nsg33
F1
sg34
(lp115
g12
(g13
g14
NtRp116
(dp117
g17
I5
sg18
g19
((lp118
g21
ag22
ag23
ag24
ag17
ag25
atRp119
sg27
S'GAGGTGGAGCTGATAGAGCCCACAGAGGACCTGAGACAACCTGGGAAGTTCCTGAGACTCTCCTGTGTAGCCTCTAGATTCGCCTTCAGTAGCTTCTGAATGAGCCCAGTTCACCAGTCTGCAGGCAAGGGGCTGGAGTGAGTAATAGATATAAAAGATGATGGAAGTCAGATACACCATGCAGACTCTGTGAAGGGCAGATTCTCCATCTCCAAAGACAATGCTAAGAACTCTCTGTATCTGCAAATGAACAGTCAGAGAACTGAGGACATGGCTGTGTAAGGCTGTACATAAGGTTCGGGTATAACTGGAACAACATGCTGAATACTTCCAGCACTGGGGCCAGGGCACCCTGGTCACCGTCTCCTCAG'
p120
sg29
g110
sg30
F1
sg31
I0
sg32
Nsg33
F1
sg34
(lp121
g12
(g13
g14
NtRp122
(dp123
g17
I2
sg18
g19
((lp124
g21
ag22
ag23
ag24
ag17
ag25
atRp125
sg27
S'GAGGTGGAGCCGAGAAAGCCCACAGAGTACCTGAGACACCCTGGGAAGTTCCTGAGACTCTCCTGTGTAGCCTCTAGATTCGCCGTCAGTAGCTTCTGAATGAGCCCAGTTCACCAGTCTACAGGCAAGGGGCTGGAGTGAGTAATAGATATAAAAGATGATGGAAGACAGATACACCATACAGACTCTGTGAAGGGCAGATTCGCCATCTCCAAAGACAATGCTAAGAACTCTCTGTATCTGCAAATGAACATTTAGATAACTGAGTACATGGCTCTGTAAGGCTGTACATAAGTTTCGGGTATAACTCGAACAACATGCTGAATATTTCCAGCACTGGGTCCAGGGCACCCAGGTCACCGTCTCCTCAG'
p126
sg29
g116
sg30
F20
sg31
I0
sg32
Nsg33
F1
sg34
(lp127
g12
(g13
g14
NtRp128
(dp129
g17
I1
sg18
g19
((lp130
g21
ag22
ag23
ag24
ag17
ag25
atRp131
sg27
S'GAGGTGGAGCCGAGAAAGCCCAAAGAGTACTTGAGACACCGTGGGAAGTTCCTGAGACTCTCCTGTGTAGCATCTAGATCCGCCGTCAGTAGCTTCTGAATGAGCCCAGTTCACCAGTCTACAGGCAAGGGGCTGGAGTGAGTAATAGATATAAAAGATGATGGAAGACAGATACACCATACAGACTCTGTCAACGGCAGATTCGCCATCTCCAAAGATAATGCTAAGAACTCTCTGTATCTGCAAATGGACATTTAGATAACTGAGTACATTGATCTGTAACGCTGTACATAAGTTTCGGGTATACCTCGAACAACATGCTGAATATTTCCAGCACTGGGTCCAGGGCACCAAGGTCACCCTCTCCTCAG'
p132
sg29
g122
sg30
F15
sg31
I1
sg32
Nsg33
F1
sg34
(lp133
sg54
S'seq8'
p134
sbag12
(g13
g14
NtRp135
(dp136
g17
I1
sg18
g19
((lp137
g21
ag22
ag23
ag24
ag17
ag25
atRp138
sg27
S'GAGGTGGAGCCGAGAAAGCCCACAGAGTACCTGAGACACCCTGGGAAGTTCCTGAGACTCTCCTGTGTAGCCTCTAGATTCGCCGTCAGTAGCTTCTGAATGAGCCCAGTTCACCAGTCTACAGGCAAGGGGCTGGAGTGAGTAATAGATATAAAAGATGATGGAAGGCAGATACACCATACAGACTCTGTGAAGGGCAGATTCGCCATCTCCAAAGACAATGCTAAGAACTCTCTGTATCTGCAAATGAACATTTAGATAACTGAGTACATGGCTCTGTAAGGCTGTACATAAGTTTCGGGTATAACTCGAACAACATGCTGAATATTTCCAGCACTGGGTCCAGGGCACCCAGGTCACCGTCTCCTCAG'
p139
sg29
g122
sg30
F1
sg31
I1
sg32
Nsg33
F1
sg34
(lp140
sg54
S'seq19'
p141
sbasg54
S'16'
p142
sbag12
(g13
g14
NtRp143
(dp144
g17
I3
sg18
g19
((lp145
g21
ag22
ag23
ag24
ag17
ag25
atRp146
sg27
S'GAGGTGGAGCTGATAGTGCCCACAGAGGACCCGAGACAACCTGGGAAGTTCCTGAGACTCTCCTGTGTAGCCTCTAGACTCGCCTTCAGTAGCTTCTGAATGAGCCCAGTTCACCAGTCTGAAGGCAAGGAGCTGGAGTGAGTAATAGATATAAAAGATGATGGAAGTCAGATACACCATGCAGACTCTGTGAAGGGCAGATTCTCCATCTCAAAAGACAATGCTAAGAACTCTCTGTATCTGCAAATGAACAGTCAGAGAACTGAGGAAATGGCTGTGTAAGGCTGTACATAAGGTTCGGGTATAAATGGAACAGCATGCTGAATACTTCCAGCACTGGGGCCAGGGCACCCCGGTCGCCGTCTCCTCAG'
p147
sg29
g116
sg30
F11
sg31
I0
sg32
Nsg33
F1
sg34
(lp148
g12
(g13
g14
NtRp149
(dp150
g17
I1
sg18
g19
((lp151
g21
ag22
ag23
ag24
ag17
ag25
atRp152
sg27
S'GAGGTGGAGCTGATAGTGCCCACAGAGGACCCGAGACAACCTGGGAAGTTCCTGAGACTCTCCTGTGTAGCCTCTAGACTCGCCTTCAGTAGCTTCTGAATGAGCCCAGTTCACCAGTCTGAAGGCGAGGAGCTGGAGTGAGTAATAGATATAAAAGATGATGGAAGTCAGATACACCATGCAGACTCTGTGAAGGGCAGATTCTCCATCTCAAAAGACAATGCTAAGAACTCTCTGTATCTGCAAATGAACAGTCAGAGAACTGAGGAAATGGCTGTGTAAGGCTGTACATAAGGTTCGGGTATAAATGGAACAGCATGCTGAATACTTCCAGCACTGGGGCCAGGGCACCCCGGTCGCCGTCTCCTCAG'
p153
sg29
g143
sg30
F1
sg31
I1
sg32
Nsg33
F1
sg34
(lp154
sg54
S'seq7'
p155
sbag12
(g13
g14
NtRp156
(dp157
g17
I2
sg18
g19
((lp158
g21
ag22
ag23
ag24
ag17
ag25
atRp159
sg27
S'GAGGTGTAGCTGATAGTGCCTACAGAGGACCCGAGACAACCTGGGAAGTTTATGAGACTCTCCTGTGTAGCCTATAGACTAGCCTTCAGTTGCTTCTGAATGAGGCCAGTTCACCAGTCTGAAGGCAAGGAGCTGGAGTGAGTAATAGATATAAAAGATGATGGAAGTCAGATACACCATGCAGACTCTGTGAAGGGCAGATTCTCCATCTCAAAACAAAATGCTAAGAACTCTCTGTATCTGCAAATGAACAGTCGGAGAACTGAGGAAGTGGCTGTGTAAGGCTGTACATAAGGTTCGGATATAAATGGAACAGCATGCTGAATACTTCCAGCACTGGGGCCAGGGCACCCCGGTCGCCGTCTCCTCAG'
p160
sg29
g143
sg30
F13
sg31
I0
sg32
Nsg33
F1
sg34
(lp161
g12
(g13
g14
NtRp162
(dp163
g17
I1
sg18
g19
((lp164
g21
ag22
ag23
ag24
ag17
ag25
atRp165
sg27
S'GAGGTGTAGCTGATAGTGCCTACAGAGGACCCGAGACAACCTGGGAAGTTTATGAGACTCTCCTGTGTAGCCTATAGACTAGCCTTCAGTTGCTTCTGAATGAGGCCAGTTCACCAGTCTGAAGGCGAGGAGCTGGAGTGAGTAATAGATATAAAAGATGATGGAAGTCAGATACACCATGCAGACTCTGTGAAGGGCAGATTCTCCATCTCAAAACAAAATGCTAAGAACTCTCTGTATCTGCAAATGAACAGTCGGAGAACTGAGGAAGTGGCTGTGTAAGGCTGTACATAAGGTTCGGATATAAATGGAACAGCATGCTGAATACTTCCAGCACTGGGGCCAGGGCACCCCGGTCGCCGTCTCCTCAG'
p166
sg29
g156
sg30
F1
sg31
I1
sg32
Nsg33
F1
sg34
(lp167
sg54
S'seq9'
p168
sbag12
(g13
g14
NtRp169
(dp170
g17
I1
sg18
g19
((lp171
g21
ag22
ag23
ag24
ag17
ag25
atRp172
sg27
S'GAGGTTAAGCTGATAGTGCCTACAGAGGACCAGAGACAACCTGGGTAGTTTATGAGACTCTCCTGTGTAGCCTATAGACTAGCCTTCAGTTGCTTCTGAATGAGGCCAGTTCACTAGTCTGAAGGCAAGGAGCTGGAGTGAGTAATAGATATAAAAGATGACGGCAGTCATATACACCTTGCAGACTCTGTGAAGGGCAGATTCTCCATCTCAAAACCAAATGCTAAGAACTCTCTGTATCTGCAAATGAACAGTCGGAGGACTGAGGAAGTGGCTGAGTAAGGCTGTACGTAAGGTTCGGATATAAATGGAACAGCATGCTGCATACTTCCAGCACTGGGGCCAGGCCATCCCGGTCGCCGTCTTCTCAT'
p173
sg29
g156
sg30
F18
sg31
I1
sg32
Nsg33
F1
sg34
(lp174
sg54
S'seq6'
p175
sbasg54
S'8'
sbasg54
S'6'
sbasg54
S'7'
sbasg54
S'seq14'
p176
sbag12
(g13
g14
NtRp177
(dp178
g17
I7
sg18
g19
((lp179
g21
ag22
ag23
ag24
ag17
ag25
atRp180
sg27
S'GAGGTGGAGCTGATAGAGCCCACAGAGGACCTGAGACAACCTGGGAAGTTCCTGAGACTCTCCTGTGTAGCCTCTAGATTCGCCTTCAGTAGCTTCTGAATGAGCCCAGTTCACCAGTCTGCAGGCAAGGGGCTGGAGTGAGTAATAGATATAAAAGATGATGGAAGTCAGATACACCATGCAGACTCTGTGAAGGGCAGATTCTCCATCTCCAAAGACAATGCTAAGAACTCTCTGTATCTGCAAATGAACAGTCAGAGAACTGAGGACATGGCTGTGTATGGCTGTACATAAGGTATAA--CTAT-----ATACAACGCTGAATACTTCCAGCACTGGGGCCAGGGCACCCTGGTCACCGTCTCCTCAG'
p181
sg29
g104
sg30
F13
sg31
I0
sg32
Nsg33
F1
sg34
(lp182
g12
(g13
g14
NtRp183
(dp184
g17
I1
sg18
g19
((lp185
g21
ag22
ag23
ag24
ag17
ag25
atRp186
sg27
S'GAGGTGGAGCTGATAGAGCCCACAGAGGACCTGAGACAACCTGGGAAGTTCCTGAGACTCTCCTGTGTAGCCTCTAGATTCGCCTTCAGTAGCTTCTGAATGAGCCCAGTTCACCAGTCTGCAGGCAAGGGGCTGGAGTGAGTAATAGATATAAAAGATGATGGAAGTCAGATACACCATGCAGACTCTGTGAAGGGCAGATTCTCCATCTCCAAAGACAATGCTAAGAACTCTCTGTATCTGCAAATGAACAGTCAGAGAACTGAGGACATGGCTGTGTATGGCTGTACATAAGGTATAA--CTG------GAACAACGCTGAATACTTCCAGCACTGGGGCCAGGGCACCCTGGTCACCGTCTCCTCAG'
p187
sg29
g177
sg30
F4
sg31
I1
sg32
Nsg33
F1
sg34
(lp188
sg54
S'seq13'
p189
sbag12
(g13
g14
NtRp190
(dp191
g17
I6
sg18
g19
((lp192
g21
ag22
ag23
ag24
ag17
ag25
atRp193
sg27
S'GAGGTGGAGCTGATAGAGGCCACAGAGGACCTGAGACGACCTGGGAAGTTCCTGAGACTCTCCTGTGTAGACTCTAGATTCGCCTTCAGTAGCTTCTGAATGAGCCCAGTTCACCACTCTGCAGGCAAGGGGCTGGAGTGAGTAATAGATATAAAAGAAGATGGAAGTCAGATACACCATGCAGACTCTGTGAAGGGCAGATTCTCCATCTCAAAAGACAATGCTAAGAACTCTCTGTATCTGCAACTAAACAGTCAGATAACTAAGGACATGGCTGTGTATGGCTGTACATAAGGTATAACTGGAT-------ACAACGCTCAATACTTCCAGCACTGGGGCCAGGGCACCCTGGTCACCGTCTCCTCAG'
p194
sg29
g177
sg30
F17
sg31
I0
sg32
Nsg33
F1
sg34
(lp195
g12
(g13
g14
NtRp196
(dp197
g17
I1
sg18
g19
((lp198
g21
ag22
ag23
ag24
ag17
ag25
atRp199
sg27
S'GAGGTGGAGCTGATAGAGGCCACAGAGGACCTGAGACGACCTGGGATGTTCCTGAGACTCTCCTGTGTAGACTCTAGATTCGCCTTCAGTAGCTTCTGAATGAGCCCAGTTCACCACTCTGCAGGCAAGGGGCTGGAGTGAGTAATAGATATAAAAGAAGATGGAAGTCAGATACACCATGCAGACTCTGTGAAGGGCAGATTCTCCATCTCAAAAGACAATGCTAAGAACTCTCTGTATCTGCAACTAAACAGTCAGATAACTAAGGACATGGCTGTGTATGGCTGTACATAAGGTATAACTGGA--------ACAACGCTCAATACTTCCAGCACTGGGGCCAGGGCACCCTGGTCACCGTCTCCTCAG'
p200
sg29
g190
sg30
F2
sg31
I1
sg32
Nsg33
F1
sg34
(lp201
sg54
S'seq18'
p202
sbag12
(g13
g14
NtRp203
(dp204
g17
I5
sg18
g19
((lp205
g21
ag22
ag23
ag24
ag17
ag25
atRp206
sg27
S'GAGGTGGAGCTGATAGAGGCCACAGAGGACCTGAGACGACCTGGGAAGTTCCTGAGACTCTCCTGTGTAGACTCTAGATTCGCCTTCAGTAGCTTCTGAATGAGCCCAGTTCACCACTCTGCAGGCAAGGGGCTGGAGTGAGTAATAGATATAAAAGAAGATGGAAGTCAGATACACCATGCAGACTCTGTGAAGGGCAGATTCTCCATCTCAAAAGACAATGCTAAGAACTCTCTGTATCTGCAACTAAACAGTCAGATAACTAAGGACATGGCTGTGTATGGCTGTACATAAGGTATAACTGGAAC--------AACGCTCAATACTTCCAGCACTGGGGCCAGGGCACCCTGGTCACCGTCTCCTCAG'
p207
sg29
g190
sg30
F4
sg31
I0
sg32
Nsg33
F1
sg34
(lp208
g12
(g13
g14
NtRp209
(dp210
g17
I2
sg18
g19
((lp211
g21
ag22
ag23
ag24
ag17
ag25
atRp212
sg27
S'GAGGTGCAGCTGATAGAGGACACAGAAGACCTGAGACGACCTGGGATGTTCCTGAGACTCTCCTGTGTAGACTCTAGATGCGCCTTCAGTAGCTTCTGAATGAGCCCAGTTCACCACTCTACAGGCAAGGGGCTGGAGTGAGTAATAGATATAAAAGCAGATGGAAGTCAGATACACCATGCAGACTCTGTGAAGGGTAGATTCTACATCTCAAAAGACAATGCTAAGAACTCTCTGTATCTGCAACTAAACAGTCAGATAACTAAGGACATGGCTGTGTATGGCTGTACATCAGGTATAACTGGAAC--------AACGCTCAATACTTCCAGCACGGGCGACAGGGCACCCTGGTCACCGTCTCCTCAG'
p213
sg29
g203
sg30
F13
sg31
I0
sg32
Nsg33
F1
sg34
(lp214
g12
(g13
g14
NtRp215
(dp216
g17
I1
sg18
g19
((lp217
g21
ag22
ag23
ag24
ag17
ag25
atRp218
sg27
S'GAGGTGCAGCTGATAGAGGACACAGAAGACCTGAGACGACCTGGGATGTTCCTGAGACTCTCCTGTGTAGACTCTAGATGCGCCTTCAGTAGCTTCTGAATGAGCCCAGTTCACCACTCTACAGGCAAGGGGCTGGAGTGAGTAATAGATATAAAAGCAGATGGAAGTCAGATACACCATGCAGACTCTGTGAAGGGTAGATTCTACATCTCAAAAGACAATGCTAAGAACTCTCTGTATCTGCAGCTAAACAGTCAGATAACTAAGGACATGGCTGTGTATGGCTGTACATCAGGTATAACTGGAAC--------AACGCTCAATACTTCCAGCACGGGCGACAGGGCACCCTGGTCACCGTCTCCTCAG'
p219
sg29
g209
sg30
F1
sg31
I1
sg32
Nsg33
F1
sg34
(lp220
sg54
S'seq17'
p221
sbag12
(g13
g14
NtRp222
(dp223
g17
I1
sg18
g19
((lp224
g21
ag22
ag23
ag24
ag17
ag25
atRp225
sg27
S'GAGGTGCAGCTGATCGTGGACACAGAAGACCTGAGACGACCTGGGATGTTCCGGAGACTCTCCTGTGTAGACTCTAGATGCGCCTTCAGTAGCTTCTGAATGAGCCCAGTTCACCACTCTACAGGGAAGGGGCTGGAGTGAGTAATAGATATAAAAGCAGATGGAAGTCAGATACACCATACAGACTCTGTGAAGGGTAGATTATACATCTCAAAAGACAATGCTAAGAACTCTCTGTATCTGCACCTAAACAGTCAGATAACTAAGGACATGGTTGTGTATGGCTGTACATCAGGTATAACTGGAAA--------AACGCTCAATACTTCCAGCACGGGCGACAGAGCACCCTGGTCACGGTCTCCTCAG'
p226
sg29
g209
sg30
F11
sg31
I1
sg32
Nsg33
F1
sg34
(lp227
sg54
S'seq20'
p228
sbasg54
S'17'
p229
sbag12
(g13
g14
NtRp230
(dp231
g17
I3
sg18
g19
((lp232
g21
ag22
ag23
ag24
ag17
ag25
atRp233
sg27
S'GAGGTGGAGCTGATAGAAGCCACAGAGCACCTGAGACGACCTGGGAAGTTCCTGAGTCTCTCCTGTGTAGAGTCTAGATTCGACTTCAGTAGCTTCTGAATGAGCCCAGTTCACCACGCTGCCGGCAAGGGGCTGGCGTGAGTTATAGATATAATAGAACATGGAAGTCTGATACACCATGCAGACTCTGCGAAGGGCAGATGCTCCATCTCAAAAGACAATGCTAAGAACTCTCTGTCTCTGCAACTAAACAGTCAGATAACTAAGGACATGGCTGTGTATGGCTGTACATATGGTATAACTGGAAC--------AACGCTCAATACTTCCAGCACTGGGGCCAGGGCACCCTGGTCACCGTCACCTCAC'
p234
sg29
g203
sg30
F18
sg31
I1
sg32
Nsg33
F1
sg34
(lp235
g12
(g13
g14
NtRp236
(dp237
g17
I1
sg18
g19
((lp238
g21
ag22
ag23
ag24
ag17
ag25
atRp239
sg27
S'GAGGTGGAGCCGAAAGAAGCCACAGAGCACCTGAGACGACCTGGGAAGTTCCTGAGTCTCTCCTGTGTAGAGTCCAAATTCGACTTCAGTAGCTTCTGAATGAGCCCAGTGCACCACGCTGCCGGCAAGGAGCTGGCGTGCGTTATAGATATATTAGAACATGGAAGTCGGATACACCATGCAGACTCTGCGAAGGGCAGGTGCTCGATCTCAAAAGACAATGCTAAGAACTCTCTGTCTCTGCAACTAAGCAGTCAGATAACTAAGGACATGGCTGTCTATGGCTGCACATATGGTATAACTGGAAC--------AACGCTCAATACTTCCAGCACTGGGGCCAGGGCACCCTGGTCACCGTCACATCAC'
p240
sg29
g230
sg30
F15
sg31
I1
sg32
Nsg33
F1
sg34
(lp241
sg54
S'seq16'
p242
sbag12
(g13
g14
NtRp243
(dp244
g17
I1
sg18
g19
((lp245
g21
ag22
ag23
ag24
ag17
ag25
atRp246
sg27
S'GAGGTGGAGCTGATAGAAGCGACAGAGCACCTGAGACGACCTGGGAGAATCCTAAGTCTCTCCTGTGTAGAGTCTAGATTCGACTGAAGTAACTTCTGAATGAGCCCAGTTCACCACGCTGCCGACAAGGGGCTGGCGTGAGTTATTGATATAATAGTACATGGAAGTCTGATACACCATGCAGACGCTGCGAAGGGCAGATGCTCCATCTCAAAAGACAATGCTAAGAACTCTCTTTGTCTGCAACTACACAGTCTGATAACTAAGGACATGCCTGTGTATGGCTGTACATATGGTATAACTGGAAC--------AACGCTCAATACTTCCCGCACTGGGGCCAGGGCACCCTGGTCCCCGTCACCTCAC'
p247
sg29
g230
sg30
F19
sg31
I1
sg32
Nsg33
F1
sg34
(lp248
sg54
S'seq5'
p249
sbasg54
S'seq1'
p250
sbasg54
S'14'
p251
sbasg54
S'15'
p252
sbasg54
S'12'
p253
sbasg54
S'5'
sbasg54
S'seq15'
p254
sbasg54
S'ighv'
p255
sbsg4
Nsg7
Nsg6
I2
sb(i__main__
CollapsedTree
p256
(dp257
g5
g12
(g13
g14
NtRp258
(dp259
g17
I20
sg18
g19
((lp260
S'dist'
p261
aS'name'
p262
aS'sequence'
p263
aS'support'
p264
ag17
aS'frequency'
p265
atRp266
sg27
S'GAGGTGGAGCTGATAGAGCCCACAGAGGACCTGAGACAACCTGGGAAGTTCCTGAGACTCTCCTGTGTAGCCTCTAGATTCGCCTTCAGTAGCTTCTGAATGAGCCCAGTTCACCAGTCTGCAGGCAAGGGGCTGGAGTGAGTAATAGATATAAAAGATGATGGAAGTCAGATACACCATGCAGACTCTGTGAAGGGCAGATTCTCCATCTCCAAAGACAATGCTAAGAACTCTCTGTATCTGCAAATGAACAGTCAGAGAACTGAGGACATGGCTGTGTATGGCTGTACATAAGGTTGGT--ATAACTGGAACAAC--GCTGAATACTTCCAGCACTGGGGCCAGGGCACCCTGGTCACCGTCTCCTCAG'
p267
sg29
Nsg30
F0
sg31
I0
sg32
Nsg33
F1
sg34
(lp268
g12
(g13
g14
NtRp269
(dp270
g17
I20
sg18
g19
((lp271
g261
ag262
ag263
ag264
ag17
ag265
atRp272
sg27
S'GAGGTGGAGCTGATAGAGCCCACAGAGGACCTGAGACAACCTGGGAAGTTCCTGAGACTCTCCTGTGTAGCCTCTAGATTCGCCTTCAGTAGCTTCTGAATGAGCCCAGTTCACCAGTCTGCAGGCAAGGGGCTGGAGTGAGTAATAGATATAAAAGATGATGGAAGTCAGATACACCATGCAGACTCTGTGAAGGGCAGATTCTCCATCTCCAAAGACAATGCTAAGAACTCTCTGTATCTGCAAATGAACAGTCAGAGAACTGAGGACATGGCTGTGTATGGCTGTACATAAGGTTGGT--ATAACTGGAACAACACGCTGAATACTTCCAGCACTGGGGCCAGGGCACCCTGGTCACCGTCTCCTCAG'
p273
sg29
g258
sg30
F2
sg31
I0
sg32
Nsg33
F1
sg34
(lp274
g12
(g13
g14
NtRp275
(dp276
g17
I6
sg18
g19
((lp277
g261
ag262
ag263
ag264
ag17
ag265
atRp278
sg27
S'GAGGTGGAGCTGATAGAGCCCACAGAGGACCTGAGACAACCTGGGAAGTTCCTGAGACTCTCCTGTGTAGCCTCTAGATTCGCCTTCAGTAGCTTCTGAATGAGCCCAGTTCACCAGTCTGCAGGCAAGGGGCTGGAGTGAGTAATAGATATAAAAGATGATGGAAGTCAGATACACCATGCAGACTCTGTGAAGGGCAGATTCTCCATCTCCAAAGACAATGCTAAGAACTCTCTGTATCTGCAAATGAACAGTCAGAGAACTGAGGACATGGCTGTGTATGGCTGTACATAAGGTTCGGGTATAACTGGAACAACATGCTGAATACTTCCAGCACTGGGGCCAGGGCACCCTGGTCACCGTCTCCTCAG'
p279
sg29
g269
sg30
F5
sg31
I1
sg32
Nsg33
F1
sg34
(lp280
g12
(g13
g14
NtRp281
(dp282
g17
I5
sg18
g19
((lp283
g261
ag262
ag263
ag264
ag17
ag265
atRp284
sg27
S'GAGGTGGAGCTGATAGAGCCCACAGAGGACCTGAGACAACCTGGGAAGTTCCTGAGACTCTCCTGTGTAGCCTCTAGATTCGCCTTCAGTAGCTTCTGAATGAGCCCAGTTCACCAGTCTGCAGGCAAGGGGCTGGAGTGAGTAATAGATATAAAAGATGATGGAAGTCAGATACACCATGCAGACTCTGTGAAGGGCAGATTCTCCATCTCCAAAGACAATGCTAAGAACTCTCTGTATCTGCAAATGAACAGTCAGAGAACTGAGGACATGGCTGTGTAAGGCTGTACATAAGGTTCGGGTATAACTGGAACAACATGCTGAATACTTCCAGCACTGGGGCCAGGGCACCCAGGTCACCGTCTCCTCAG'
p285
sg29
g275
sg30
F2
sg31
I0
sg32
Nsg33
F1
sg34
(lp286
g12
(g13
g14
NtRp287
(dp288
g17
I2
sg18
g19
((lp289
g261
ag262
ag263
ag264
ag17
ag265
atRp290
sg27
S'GAGGTGGAGCCGAGAAAGCCCACAGAGTACCTGAGACACCCTGGGAAGTTCCTGAGACTCTCCTGTGTAGCCTCTAGATTCGCCGTCAGTAGCTTCTGAATGAGCCCAGTTCACCAGTCTACAGGCAAGGGGCTGGAGTGAGTAATAGATATAAAAGATGATGGAAGGCAGATACACCATACAGACTCTGTGAAGGGCAGATTCGCCATCTCCAAAGACAATGCTAAGAACTCTCTGTATCTGCAAATGAACATTTAGATAACTGAGTACATGGCTCTGTAAGGCTGTACATAAGTTTCGGGTATAACTCGAACAACATGCTGAATATTTCCAGCACTGGGTCCAGGGCACCCAGGTCACCGTCTCCTCAG'
p291
sg29
g281
sg30
F19
sg31
I1
sg32
Nsg33
F1
sg34
(lp292
g12
(g13
g14
NtRp293
(dp294
g17
I1
sg18
g19
((lp295
g261
ag262
ag263
ag264
ag17
ag265
atRp296
sg27
S'GAGGTGGAGCCGAGAAAGCCCAAAGAGTACTTGAGACACCGTGGGAAGTTCCTGAGACTCTCCTGTGTAGCATCTAGATCCGCCGTCAGTAGCTTCTGAATGAGCCCAGTTCACCAGTCTACAGGCAAGGGGCTGGAGTGAGTAATAGATATAAAAGATGATGGAAGACAGATACACCATACAGACTCTGTCAACGGCAGATTCGCCATCTCCAAAGATAATGCTAAGAACTCTCTGTATCTGCAAATGGACATTTAGATAACTGAGTACATTGATCTGTAACGCTGTACATAAGTTTCGGGTATACCTCGAACAACATGCTGAATATTTCCAGCACTGGGTCCAGGGCACCAAGGTCACCCTCTCCTCAG'
p297
sg29
g287
sg30
F16
sg31
I1
sg32
Nsg33
F1
sg34
(lp298
sg54
S'seq8'
p299
sbasg54
S'seq19'
p300
sbag12
(g13
g14
NtRp301
(dp302
g17
I3
sg18
g19
((lp303
g261
ag262
ag263
ag264
ag17
ag265
atRp304
sg27
S'GAGGTGGAGCTGATAGTGCCCACAGAGGACCCGAGACAACCTGGGAAGTTCCTGAGACTCTCCTGTGTAGCCTCTAGACTCGCCTTCAGTAGCTTCTGAATGAGCCCAGTTCACCAGTCTGAAGGCAAGGAGCTGGAGTGAGTAATAGATATAAAAGATGATGGAAGTCAGATACACCATGCAGACTCTGTGAAGGGCAGATTCTCCATCTCAAAAGACAATGCTAAGAACTCTCTGTATCTGCAAATGAACAGTCAGAGAACTGAGGAAATGGCTGTGTAAGGCTGTACATAAGGTTCGGGTATAAATGGAACAGCATGCTGAATACTTCCAGCACTGGGGCCAGGGCACCCCGGTCGCCGTCTCCTCAG'
p305
sg29
g281
sg30
F11
sg31
I0
sg32
Nsg33
F1
sg34
(lp306
g12
(g13
g14
NtRp307
(dp308
g17
I1
sg18
g19
((lp309
g261
ag262
ag263
ag264
ag17
ag265
atRp310
sg27
S'GAGGTGGAGCTGATAGTGCCCACAGAGGACCCGAGACAACCTGGGAAGTTCCTGAGACTCTCCTGTGTAGCCTCTAGACTCGCCTTCAGTAGCTTCTGAATGAGCCCAGTTCACCAGTCTGAAGGCGAGGAGCTGGAGTGAGTAATAGATATAAAAGATGATGGAAGTCAGATACACCATGCAGACTCTGTGAAGGGCAGATTCTCCATCTCAAAAGACAATGCTAAGAACTCTCTGTATCTGCAAATGAACAGTCAGAGAACTGAGGAAATGGCTGTGTAAGGCTGTACATAAGGTTCGGGTATAAATGGAACAGCATGCTGAATACTTCCAGCACTGGGGCCAGGGCACCCCGGTCGCCGTCTCCTCAG'
p311
sg29
g301
sg30
F1
sg31
I1
sg32
Nsg33
F1
sg34
(lp312
sg54
S'seq7'
p313
sbag12
(g13
g14
NtRp314
(dp315
g17
I2
sg18
g19
((lp316
g261
ag262
ag263
ag264
ag17
ag265
atRp317
sg27
S'GAGGTGGAGCTGATAGTGCCTACAGAGGACCCGAGACAACCTGGGAAGTTTATGAGACTCTCCTGTGTAGCCTATAGACTAGCCTTCAGTTGCTTCTGAATGAGGCCAGTTCACCAGTCTGAAGGCAAGGAGCTGGAGTGAGTAATAGATATAAAAGATGATGGAAGTCAGATACACCATGCAGACTCTGTGAAGGGCAGATTCTCCATCTCAAAACAAAATGCTAAGAACTCTCTGTATCTGCAAATGAACAGTCGGAGAACTGAGGAAGTGGCTGTGTAAGGCTGTACATAAGGTTCGGATATAAATGGAACAGCATGCTGAATACTTCCAGCACTGGGGCCAGGGCACCCCGGTCGCCGTCTCCTCAG'
p318
sg29
g301
sg30
F12
sg31
I0
sg32
Nsg33
F1
sg34
(lp319
g12
(g13
g14
NtRp320
(dp321
g17
I1
sg18
g19
((lp322
g261
ag262
ag263
ag264
ag17
ag265
atRp323
sg27
S'GAGGTGTAGCTGATAGTGCCTACAGAGGACCCGAGACAACCTGGGAAGTTTATGAGACTCTCCTGTGTAGCCTATAGACTAGCCTTCAGTTGCTTCTGAATGAGGCCAGTTCACCAGTCTGAAGGCGAGGAGCTGGAGTGAGTAATAGATATAAAAGATGATGGAAGTCAGATACACCATGCAGACTCTGTGAAGGGCAGATTCTCCATCTCAAAACAAAATGCTAAGAACTCTCTGTATCTGCAAATGAACAGTCGGAGAACTGAGGAAGTGGCTGTGTAAGGCTGTACATAAGGTTCGGATATAAATGGAACAGCATGCTGAATACTTCCAGCACTGGGGCCAGGGCACCCCGGTCGCCGTCTCCTCAG'
p324
sg29
g314
sg30
F2
sg31
I1
sg32
Nsg33
F1
sg34
(lp325
sg54
S'seq9'
p326
sbag12
(g13
g14
NtRp327
(dp328
g17
I1
sg18
g19
((lp329
g261
ag262
ag263
ag264
ag17
ag265
atRp330
sg27
S'GAGGTTAAGCTGATAGTGCCTACAGAGGACCAGAGACAACCTGGGTAGTTTATGAGACTCTCCTGTGTAGCCTATAGACTAGCCTTCAGTTGCTTCTGAATGAGGCCAGTTCACTAGTCTGAAGGCAAGGAGCTGGAGTGAGTAATAGATATAAAAGATGACGGCAGTCATATACACCTTGCAGACTCTGTGAAGGGCAGATTCTCCATCTCAAAACCAAATGCTAAGAACTCTCTGTATCTGCAAATGAACAGTCGGAGGACTGAGGAAGTGGCTGAGTAAGGCTGTACGTAAGGTTCGGATATAAATGGAACAGCATGCTGCATACTTCCAGCACTGGGGCCAGGCCATCCCGGTCGCCGTCTTCTCAT'
p331
sg29
g314
sg30
F18
sg31
I1
sg32
Nsg33
F1
sg34
(lp332
sg54
S'seq6'
p333
sbasg54
S'7'
sbasg54
S'5'
sbasg54
S'6'
sbasg54
S'seq14'
p334
sbag12
(g13
g14
NtRp335
(dp336
g17
I7
sg18
g19
((lp337
g261
ag262
ag263
ag264
ag17
ag265
atRp338
sg27
S'GAGGTGGAGCTGATAGAGCCCACAGAGGACCTGAGACAACCTGGGAAGTTCCTGAGACTCTCCTGTGTAGCCTCTAGATTCGCCTTCAGTAGCTTCTGAATGAGCCCAGTTCACCAGTCTGCAGGCAAGGGGCTGGAGTGAGTAATAGATATAAAAGATGATGGAAGTCAGATACACCATGCAGACTCTGTGAAGGGCAGATTCTCCATCTCCAAAGACAATGCTAAGAACTCTCTGTATCTGCAAATGAACAGTCAGAGAACTGAGGACATGGCTGTGTATGGCTGTACATAAGGTATAA--GTACT-----GACAACGCTGAATACTTCCAGCACTGGGGCCAGGGCACCCTGGTCACCGTCTCCTCAG'
p339
sg29
g269
sg30
F15
sg31
I0
sg32
Nsg33
F1
sg34
(lp340
g12
(g13
g14
NtRp341
(dp342
g17
I1
sg18
g19
((lp343
g261
ag262
ag263
ag264
ag17
ag265
atRp344
sg27
S'GAGGTGGAGCTGATAGAGCCCACAGAGGACCTGAGACAACCTGGGAAGTTCCTGAGACTCTCCTGTGTAGCCTCTAGATTCGCCTTCAGTAGCTTCTGAATGAGCCCAGTTCACCAGTCTGCAGGCAAGGGGCTGGAGTGAGTAATAGATATAAAAGATGATGGAAGTCAGATACACCATGCAGACTCTGTGAAGGGCAGATTCTCCATCTCCAAAGACAATGCTAAGAACTCTCTGTATCTGCAAATGAACAGTCAGAGAACTGAGGACATGGCTGTGTATGGCTGTACATAAGGTATAA--CTG------GAACAACGCTGAATACTTCCAGCACTGGGGCCAGGGCACCCTGGTCACCGTCTCCTCAG'
p345
sg29
g335
sg30
F6
sg31
I1
sg32
Nsg33
F1
sg34
(lp346
sg54
S'seq13'
p347
sbag12
(g13
g14
NtRp348
(dp349
g17
I6
sg18
g19
((lp350
g261
ag262
ag263
ag264
ag17
ag265
atRp351
sg27
S'GAGGTGGAGCTGATAGAGGCCACAGAGGACCTGAGACGACCTGGGATGTTCCTGAGACTCTCCTGTGTAGACTCTAGATTCGCCTTCAGTAGCTTCTGAATGAGCCCAGTTCACCACTCTGCAGGCAAGGGGCTGGAGTGAGTAATAGATATAAAAGAAGATGGAAGTCAGATACACCATGCAGACTCTGTGAAGGGCAGATTCTCCATCTCAAAAGACAATGCTAAGAACTCTCTGTATCTGCAACTAAACAGTCAGATAACTAAGGACATGGCTGTGTATGGCTGTACATAAGGTATAACTGGACT------ACAACGCTCAATACTTCCAGCACTGGGGCCAGGGCACCCTGGTCACCGTCTCCTCAG'
p352
sg29
g335
sg30
F16
sg31
I0
sg32
Nsg33
F1
sg34
(lp353
g12
(g13
g14
NtRp354
(dp355
g17
I1
sg18
g19
((lp356
g261
ag262
ag263
ag264
ag17
ag265
atRp357
sg27
S'GAGGTGGAGCTGATAGAGGCCACAGAGGACCTGAGACGACCTGGGATGTTCCTGAGACTCTCCTGTGTAGACTCTAGATTCGCCTTCAGTAGCTTCTGAATGAGCCCAGTTCACCACTCTGCAGGCAAGGGGCTGGAGTGAGTAATAGATATAAAAGAAGATGGAAGTCAGATACACCATGCAGACTCTGTGAAGGGCAGATTCTCCATCTCAAAAGACAATGCTAAGAACTCTCTGTATCTGCAACTAAACAGTCAGATAACTAAGGACATGGCTGTGTATGGCTGTACATAAGGTATAACTGGA--------ACAACGCTCAATACTTCCAGCACTGGGGCCAGGGCACCCTGGTCACCGTCTCCTCAG'
p358
sg29
g348
sg30
F2
sg31
I1
sg32
Nsg33
F1
sg34
(lp359
sg54
S'seq18'
p360
sbag12
(g13
g14
NtRp361
(dp362
g17
I5
sg18
g19
((lp363
g261
ag262
ag263
ag264
ag17
ag265
atRp364
sg27
S'GAGGTGGAGCTGATAGAGGCCACAGAGGACCTGAGACGACCTGGGATGTTCCTGAGACTCTCCTGTGTAGACTCTAGATTCGCCTTCAGTAGCTTCTGAATGAGCCCAGTTCACCACTCTGCAGGCAAGGGGCTGGAGTGAGTAATAGATATAAAAGAAGATGGAAGTCAGATACACCATGCAGACTCTGTGAAGGGCAGATTCTCCATCTCAAAAGACAATGCTAAGAACTCTCTGTATCTGCAACTAAACAGTCAGATAACTAAGGACATGGCTGTGTATGGCTGTACATAAGGTATAACTGGAAC--------AACGCTCAATACTTCCAGCACTGGGGCCAGGGCACCCTGGTCACCGTCTCCTCAG'
p365
sg29
g348
sg30
F4
sg31
I0
sg32
Nsg33
F1
sg34
(lp366
g12
(g13
g14
NtRp367
(dp368
g17
I2
sg18
g19
((lp369
g261
ag262
ag263
ag264
ag17
ag265
atRp370
sg27
S'GAGGTGCAGCTGATAGAGGACACAGAAGACCTGAGACGACCTGGGATGTTCCTGAGACTCTCCTGTGTAGACTCTAGATGCGCCTTCAGTAGCTTCTGAATGAGCCCAGTTCACCACTCTACAGGCAAGGGGCTGGAGTGAGTAATAGATATAAAAGCAGATGGAAGTCAGATACACCATGCAGACTCTGTGAAGGGTAGATTCTACATCTCAAAAGACAATGCTAAGAACTCTCTGTATCTGCAGCTAAACAGTCAGATAACTAAGGACATGGCTGTGTATGGCTGTACATCAGGTATAACTGGAAC--------AACGCTCAATACTTCCAGCACGGGCGACAGGGCACCCTGGTCACCGTCTCCTCAG'
p371
sg29
g361
sg30
F13
sg31
I1
sg32
Nsg33
F1
sg34
(lp372
g12
(g13
g14
NtRp373
(dp374
g17
I1
sg18
g19
((lp375
g261
ag262
ag263
ag264
ag17
ag265
atRp376
sg27
S'GAGGTGCAGCTGATCGTGGACACAGAAGACCTGAGACGACCTGGGATGTTCCGGAGACTCTCCTGTGTAGACTCTAGATGCGCCTTCAGTAGCTTCTGAATGAGCCCAGTTCACCACTCTACAGGGAAGGGGCTGGAGTGAGTAATAGATATAAAAGCAGATGGAAGTCAGATACACCATACAGACTCTGTGAAGGGTAGATTATACATCTCAAAAGACAATGCTAAGAACTCTCTGTATCTGCACCTAAACAGTCAGATAACTAAGGACATGGTTGTGTATGGCTGTACATCAGGTATAACTGGAAA--------AACGCTCAATACTTCCAGCACGGGCGACAGAGCACCCTGGTCACGGTCTCCTCAG'
p377
sg29
g367
sg30
F11
sg31
I1
sg32
Nsg33
F1
sg34
(lp378
sg54
S'seq20'
p379
sbasg54
S'seq17'
p380
sbag12
(g13
g14
NtRp381
(dp382
g17
I3
sg18
g19
((lp383
g261
ag262
ag263
ag264
ag17
ag265
atRp384
sg27
S'GAGGTGGAGCTGATAGAAGCCACAGAGCACCTGAGACGACCTGGGAAGTTCCTGAGTCTCTCCTGTGTAGAGTCTAGATTCGACTTCAGTAGCTTCTGAATGAGCCCAGTTCACCACGCTGCCGGCAAGGGGCTGGCGTGAGTTATAGATATAATAGAACATGGAAGTCTGATACACCATGCAGACTCTGCGAAGGGCAGATGCTCCATCTCAAAAGACAATGCTAAGAACTCTCTGTCTCTGCAACTAAACAGTCAGATAACTAAGGACATGGCTGTGTATGGCTGTACATATGGTATAACTGGAAC--------AACGCTCAATACTTCCAGCACTGGGGCCAGGGCACCCTGGTCACCGTCACCTCAC'
p385
sg29
g361
sg30
F19
sg31
I1
sg32
Nsg33
F1
sg34
(lp386
g12
(g13
g14
NtRp387
(dp388
g17
I1
sg18
g19
((lp389
g261
ag262
ag263
ag264
ag17
ag265
atRp390
sg27
S'GAGGTGGAGCCGAAAGAAGCCACAGAGCACCTGAGACGACCTGGGAAGTTCCTGAGTCTCTCCTGTGTAGAGTCCAAATTCGACTTCAGTAGCTTCTGAATGAGCCCAGTGCACCACGCTGCCGGCAAGGAGCTGGCGTGCGTTATAGATATATTAGAACATGGAAGTCGGATACACCATGCAGACTCTGCGAAGGGCAGGTGCTCGATCTCAAAAGACAATGCTAAGAACTCTCTGTCTCTGCAACTAAGCAGTCAGATAACTAAGGACATGGCTGTCTATGGCTGCACATATGGTATAACTGGAAC--------AACGCTCAATACTTCCAGCACTGGGGCCAGGGCACCCTGGTCACCGTCACATCAC'
p391
sg29
g381
sg30
F15
sg31
I1
sg32
Nsg33
F1
sg34
(lp392
sg54
S'seq16'
p393
sbag12
(g13
g14
NtRp394
(dp395
g17
I1
sg18
g19
((lp396
g261
ag262
ag263
ag264
ag17
ag265
atRp397
sg27
S'GAGGTGGAGCTGATAGAAGCGACAGAGCACCTGAGACGACCTGGGAGAATCCTAAGTCTCTCCTGTGTAGAGTCTAGATTCGACTGAAGTAACTTCTGAATGAGCCCAGTTCACCACGCTGCCGACAAGGGGCTGGCGTGAGTTATTGATATAATAGTACATGGAAGTCTGATACACCATGCAGACGCTGCGAAGGGCAGATGCTCCATCTCAAAAGACAATGCTAAGAACTCTCTTTGTCTGCAACTACACAGTCTGATAACTAAGGACATGCCTGTGTATGGCTGTACATATGGTATAACTGGAAC--------AACGCTCAATACTTCCCGCACTGGGGCCAGGGCACCCTGGTCCCCGTCACCTCAC'
p398
sg29
g381
sg30
F19
sg31
I1
sg32
Nsg33
F1
sg34
(lp399
sg54
S'seq5'
p400
sbasg54
S'seq1'
p401
sbasg54
S'14'
p402
sbasg54
S'15'
p403
sbasg54
S'11'
p404
sbag12
(g13
g14
NtRp405
(dp406
g17
I7
sg18
g19
((lp407
g261
ag262
ag263
ag264
ag17
ag265
atRp408
sg27
S'GAGGTGGAGCTGATAGAGCCCACAGAGGACCTGAGACAACCTGGGAAGTTCCTGAGACTCTCCTGTGTAGCCTCTAGATTCGCCTTCAGTAGCTTCTGAATGAGCCCAGTTCACCAGTCTGCAGGCAAGGGGCTGGAGTGAGTAATAGATATAAAAGATGATGGAAGTCAGATACACCATGCAGACTCTGTGAAGGGCAGATTCTCCATCTCCAAAGACAATGCTAAGAACTCTCTGTATCTGCAAATGAACAGTCAGAGAACTGAGGACATGGCTGTGTATGGCTGTACATAAGGTTGGT--ATAACTGGAACAACCCGCTGAATACTTCCAGCACTGGGGCCAGGGCACCCTGGTCACCGTCTCCTCAG'
p409
sg29
g269
sg30
F1
sg31
I1
sg32
Nsg33
F1
sg34
(lp410
g12
(g13
g14
NtRp411
(dp412
g17
I6
sg18
g19
((lp413
g261
ag262
ag263
ag264
ag17
ag265
atRp414
sg27
S'GAGGTGGAGCTGATAGAGCCCACAGAGGACCTGAGACAACCTGGGAAGTTCCTGAGACTCTCCTGTGTAGCCTCTAGATTCGCCTTCAGTAGCTTCTGAATGAGCCCAGTTCACCAGTCTGCAGGCAAGGGGCTGGAGTGAATAATAGATATAAAAGATGATGGAAGTCAGATACACCATGCAGACTCTGTGAAGGGCAGATTCTCCATCTCCAAAGACAATGCTAAGAACTCTCTGTATCTGCAAATGAACAGTCAGAGAACTGAGGACATGGCTGTGTATGGCTGTACATAAGGTTGGTA--TAACTGGAACAACCCGCTGAATACTTCCAGCACTGGGGCCAGGGCACCCTGGTCACCGTCTCCTCAG'
p415
sg29
g405
sg30
F3
sg31
I0
sg32
Nsg33
F1
sg34
(lp416
g12
(g13
g14
NtRp417
(dp418
g17
I1
sg18
g19
((lp419
g261
ag262
ag263
ag264
ag17
ag265
atRp420
sg27
S'GAGGTTGAGCTCATAGAGCCCACAGAGGAACTGAGACAACCTGGGAAGTTCCTGAGACTCTCCTGTGTAGCCTCTAGGTTCGCCTTCAGTGGGTTCTGAATGAGCCCAGTTCACCAGTCTGCAAGCAAGGGGCTGGAGTGAATAATAGATATAAAAGATGATGGCAGTCAGGTACACCATGCAGACTCTGTGAAGGGCAGATTCTCCATCCCCAAAGACAACGCTAAGAACTCTCTGTATCTGCAAATGAACAGTCAGAGAAGTGAGGACATGGCTGTGTACGGCTGTACATAAGGTTGGTA--TAACTGGAACAACCCGCTGAATACTTCCAGCACTGGGGCCAGGGCACCCTGGTCACCGTCTCCTCAG'
p421
sg29
g411
sg30
F13
sg31
I1
sg32
Nsg33
F1
sg34
(lp422
sg54
S'seq4'
p423
sbag12
(g13
g14
NtRp424
(dp425
g17
I5
sg18
g19
((lp426
g261
ag262
ag263
ag264
ag17
ag265
atRp427
sg27
S'GAGATGGAGCTGATAAAGCCCACAGAGGACCTGAGACAACCTGGGAAGTTCCTGAGACTCTCCTGTGTAGCCTCTAGATTCGCCTTCAGTAGCTTCTGTATGAGCCCAGTTAATCAGTCTGCAGTCAAGGGGCTGGAGTGATTAATAGATATAAAAGATGATGGAAGTCAGATACTCCACGCATACTCTGTGAAGGGCAGATTCTCCGTCTCCAAAGAAAATGCTAAGAACTCTCTGTATCTGCAAATGAACATTCAGAGAACTGAGGACATGGCTGTGTATGACTGTACATAAGGTTGGTA--TAACTGGAGCAACCCGCTGAATACTCCCAGCACTGGGGCAAGGGCACCCAGGTCACCGTCTCCTCAG'
p428
sg29
g411
sg30
F18
sg31
I0
sg32
Nsg33
F1
sg34
(lp429
g12
(g13
g14
NtRp430
(dp431
g17
I1
sg18
g19
((lp432
g261
ag262
ag263
ag264
ag17
ag265
atRp433
sg27
S'GAGATGGAGCTGATAAAGCCCACAGAGGACGTGAGACAACCTGTGCAGTTCCTGAGACGATCCGGTGTAGCCTCTAGATTCGCCTTCAGTAGCCCCAGTATGAGCCCAGTTACTCAGTCTGCAGTCAAGGGGCTGGAGAGATTAATAGATATAAAAGATGATGGAAGTCAGATACTCCACGCATACTCTGTGAAGGGCAGATTCTCCGTCTCCAAAGAAAATGCTAAGAACTCGCGGTATCTGCAAATGAACATTCAGAAAACTGAGGACATGGCTGTGTATGACTGTACGTAAGGTTGGTA--TAACTGTAGCAACCCGCTGAATACTCCCAGCTCTGGGGCAAGGGCACCCAGGTCACTGTCTCCTCAG'
p434
sg29
g424
sg30
F18
sg31
I1
sg32
Nsg33
F1
sg34
(lp435
sg54
S'seq10'
p436
sbag12
(g13
g14
NtRp437
(dp438
g17
I4
sg18
g19
((lp439
g261
ag262
ag263
ag264
ag17
ag265
atRp440
sg27
S'GAGATGGAGCTGATAAAGCCCACAGAGGACCTGAGACAACCTGGGAAGTTCCTGAGACTCTCCTGTGTAGCCTCTAGATTCGCCTTCAGTAGCTTCTGTATGAGCCCAGTTAATCAGTCTGCAGTCAAGGGGCTGGAGTCATTAATAGATATAAAAGATGATGGAAGTCAGATACTCCACGCATACTCTGTGAAGGGCAGATTCTCCGTCTCCAAAGAAAATGCTAAGAACTCTCTGTATCTGCAAATGAACATTCAGAGAACTGAGGACATGGCTGTGTATGACTGTACATAAGGTTGGTA--TAACTGGAGCAACCCGCTGAATACTCCCAGCACTGGGGCAAGGGCACCCAGGTCACCGTCTCCTCAG'
p441
sg29
g424
sg30
F1
sg31
I1
sg32
Nsg33
F1
sg34
(lp442
g12
(g13
g14
NtRp443
(dp444
g17
I3
sg18
g19
((lp445
g261
ag262
ag263
ag264
ag17
ag265
atRp446
sg27
S'GAGATGGAGCAAACAAAGCCCACAGAGGACCTGAGACAACCAGGGAAGTTCCTGAGACTCTCCTGTGTAGCGTCTAGATTCGCCTTCAGTAGCTTCTGTATGAGCCCAGTTAATCAGTCTGCAGTCAAGGGGCTGGAGTCATTAATAGATATAAAAGATGATGGAAGTCAGATTCTCCACGCATACTCTGTGAAGGGCAGATTCTCCGTCTCCAACGAAAATGCCAAGAACTCTCTGTATCCGCAAATGAACATACAGAGAACTGAGGACATGGCTGTGTAGGACTGTATATTAGGTTGGTA--TAACTGGAGCAACCCGCTGAATACTCCCAGCACTGGGGCAAGGGCACCCCGGTCACCGGCTCCTCAG'
p447
sg29
g437
sg30
F15
sg31
I1
sg32
Nsg33
F1
sg34
(lp448
g12
(g13
g14
NtRp449
(dp450
g17
I2
sg18
g19
((lp451
g261
ag262
ag263
ag264
ag17
ag265
atRp452
sg27
S'GAGATGGAGCAAACAAAGCCCACAGAGGACCTGAGACAACCAGGGAAGTTCCTGAGACTCTCCAGTGTAGCGTCTAGATTCGCCTTCAGTAGCTTCTGTATGAGCCCAGTGAATCAGTCTGCAGTCAAGGGGCTGGAGTAATTAATAGATATAAAAGATGATGGAAGTCAGATTCTCCACGCATACTCTGTGAAGCGCAGATTCTCCGTCTCCAACGAAAATGCCAAGAACTCTCTGTATCCGCAAATGAACCTACATAGAACTGAGGACATGGCTGTGTAGGAGTGTATATTAGATTGGTA--TAACTGGAGCAACCCGCTGAATACTCCCAGCACTGGGGCAAGGGCACACCGCTCACCGGCTCCTCAG'
p453
sg29
g443
sg30
F10
sg31
I0
sg32
Nsg33
F1
sg34
(lp454
g12
(g13
g14
NtRp455
(dp456
g17
I1
sg18
g19
((lp457
g261
ag262
ag263
ag264
ag17
ag265
atRp458
sg27
S'GAGATGGAGCAAACAAAGACCACAGAGGACCTGAGACAACCAGGGAAGTTCCTGAGACTCTCCAGTGTAGCGTCTAGATTCGCCTTCAGTAGCTTCTGTATGAGCCCAGTGAATCAGTCTGCAGTCAAGGGGCTGGCGTAATTAATAGACATAAAAGATGATGAAAGTCAGATTCTCCACGCATACACTGTGGAGCGAAGATTCTCCGTCTCCAACGAAAACGCCAAGAACTCTCTGTATCCGCAAATAAAACTACATAGAACTGAGGATATGCCTGTGTAGGAGTGTATATTAGATTGGTA--TAACTGGAGGATCCCGCTGATTCCTCCCAGCACTCGGGCAAGGGCACACCGCTCACCGGCTCCTCAG'
p459
sg29
g449
sg30
F17
sg31
I1
sg32
Nsg33
F1
sg34
(lp460
sg54
S'seq11'
p461
sbag12
(g13
g14
NtRp462
(dp463
g17
I1
sg18
g19
((lp464
g261
ag262
ag263
ag264
ag17
ag265
atRp465
sg27
S'GAGATGGAGCAAACAAAGCCCACAGTGGACCTGAGACAACCAGGGAAGTTCCTGAGACTCTCCAGTGTAGCGTCTAGATTCGCCTTCAGTAGCTTCTGTATGAGCCCAGTGAATCAGTCTGCAGTCAAGGGGCTGGAGTAATTAATAGATATAAAAGATGATGGAAGTCAGATTCTCCACGCATACTCTGTGAAGCGCAGATTCTCCGTCTCCAACGAAAATGCCAAGAACTCTCTGTATCCGCAAATGAACCTACATAGAACTGAGGACATGGCTGTGTAGGAGTGTATATTAGATTGGTA--TAACTGGAGCAACCCGCTGAATACTCCCAGCACTGGGGCAAGGGCACACCGCTCACCGGCTCCTCAG'
p466
sg29
g449
sg30
F1
sg31
I1
sg32
Nsg33
F1
sg34
(lp467
sg54
S'seq12'
p468
sbasg54
S'10'
p469
sbasg54
S'seq3'
p470
sbasg54
S'seq2'
p471
sbasg54
S'8'
sbasg54
S'3'
sbasg54
S'seq15'
p472
sbasg54
S'1'
sbasg54
S'ighv'
p473
sbsg4
Nsg7
Nsg6
I2
sbtp474
sb.