(i__main__
CollapsedForest
p1
(dp2
S'n_trees'
p3
I1
sS'frame'
p4
NsS'tree'
p5
NsS'_nparams'
p6
I2
sS'params'
p7
(lp8
F0.49494949760839696
aF0.15306122308725875
asS'forest'
p9
((i__main__
CollapsedTree
p10
(dp11
g5
ccopy_reg
_reconstructor
p12
(cete3.coretype.tree
TreeNode
p13
c__builtin__
object
p14
NtRp15
(dp16
S'partition'
p17
I50
sS'features'
p18
c__builtin__
set
p19
((lp20
S'dist'
p21
aS'name'
p22
aS'sequence'
p23
aS'support'
p24
ag17
aS'frequency'
p25
atRp26
sS'sequence'
p27
S'GGACCTAGCCTCGTGAAACCTTCTCAGACTCTGTCCCTCACCTGTTCTGTCACTGGCGACTCCATCACCAGTGGTTACTGGAACTGGATCCGGAAATTCCCAGGGAATAAACTTGAGTACATGGGGTACATAAGCTACAGTGGTAGCACTTACTACAATCCATCTCTCAAAAGTCGAATCTCCATCACTCGAGACACATCCAAGAACCAGTACTACCTGCAGTTGAATTCTGTGACTACTGAGGACACAGCCACATATTACTGT'
p28
sS'_up'
p29
NsS'_dist'
p30
F0
sS'frequency'
p31
I33
sS'_img_style'
p32
NsS'_support'
p33
F1
sS'_children'
p34
(lp35
g12
(g13
g14
NtRp36
(dp37
g17
I1
sg18
g19
((lp38
g21
ag22
ag23
ag24
ag17
ag25
atRp39
sg27
S'GGACCTAGCCTCGTGAAACCTTCCCAGACTCTGTCCCTCACCTGTTCTGTCACTGGCGACTCCATCACCAGTGGTTACTGCAACTGGATCCGGAAATTCCCAGGGAATAAACTTGAGTACATGGGGTACATAAGCTACAGTGGTAGCACTTACTACAATCCATCTCTCAAAAGTCGAATCTCCATCACTCGAGACACATCCAAGAACCAGTACTACCTGCAGTTGAATTCTGTGACTACTGAGGACACAGCCACATATTACTGT'
p40
sg29
g15
sg30
F2
sg31
I1
sg32
Nsg33
F1
sg34
(lp41
sS'name'
p42
S'seq12'
p43
sbag12
(g13
g14
NtRp44
(dp45
g17
I1
sg18
g19
((lp46
g21
ag22
ag23
ag24
ag17
ag25
atRp47
sg27
S'GGACCTAGCCTCGTGAAACCTTCTCAGACTCTGTCCCTCACCTATTCTGTCACTGGCGACTCCATCACCAGTGGTTACTGGAACTGGATCCGGAAATTCCCAGGGAATAAACTTGAGTACATGGGGTACATAAGCTACAGTGGTAGCACTTACTACAATCCATCTCTCAAAAGTCGAATCTCCATCACTCGAGACACATCCAAGAACCAGTACTACCTGCAGTTGAATTCTGTGACTACTGAGGACACAGCCACATATTACTGT'
p48
sg29
g15
sg30
F1
sg31
I1
sg32
Nsg33
F1
sg34
(lp49
sg42
S'seq10'
p50
sbag12
(g13
g14
NtRp51
(dp52
g17
I1
sg18
g19
((lp53
g21
ag22
ag23
ag24
ag17
ag25
atRp54
sg27
S'GGACCTAGCCTCGTGAAACCTTCTCAGACTCTGTCCCTCACCTGTTCTGTCACTGGCGACTCCATCACCAGTGGTTACTGGAACTGGATCCGGAAATTCCCAGGGAATAAACTTGAGTACATGGGGTACATAAGCTACAGTGGTACCACTTACTACAATCCATCTCTCAAAAGTCGAATCTCCATCACTCGAGACACATCCAAGAACCAGTACTACCTGCAGTTGAATTCTGTGACTACTGAGGACACAGCCACATATTACTGT'
p55
sg29
g15
sg30
F1
sg31
I1
sg32
Nsg33
F1
sg34
(lp56
sg42
S'seq1'
p57
sbag12
(g13
g14
NtRp58
(dp59
g17
I1
sg18
g19
((lp60
g21
ag22
ag23
ag24
ag17
ag25
atRp61
sg27
S'GGACCTAGCCTCGTGAAACCTTCTCAGACTCTGTCCCTCACCTGTTCTGTCACTGGCGACTCCATCACCAGTGGTTACTGGAACTGGATCCGGAAATTCCCAGGGAATAAACTTGAGTACATGGGGTACATAAGCTACAGTGGTAGCACTTACTACAATCCATCTCTCAAAAGTCGAATCTCCATCACTCGAGACACATCCAAGAACCAGTACTACCTGCAGTTGAATTCTGTGACTACTGAGGACACAGCCACATACTACTGT'
p62
sg29
g15
sg30
F1
sg31
I1
sg32
Nsg33
F1
sg34
(lp63
sg42
S'seq6'
p64
sbag12
(g13
g14
NtRp65
(dp66
g17
I1
sg18
g19
((lp67
g21
ag22
ag23
ag24
ag17
ag25
atRp68
sg27
S'GGACCTAGCCTCGTGAAACCTTCTCAGACTCTGTCCCTCACCTGTTCTGTCACTGGCGACTCCATCACCAGTGGTTACTGGAACTGGATCCGGAAATTCCCAGGGAATAAACTTGAGTACATGGGGTACATAAGCTACAGTGGTAGCACTTACTACAATCCATCTCTCAAAAGTCGAATCTCCATCACTCGAGACACATCCAAGAACCAGTACTACCTGCAGTTGAATTCTGTGACTACTGAGGGCACAGCCACATATTACTGT'
p69
sg29
g15
sg30
F1
sg31
I1
sg32
Nsg33
F1
sg34
(lp70
sg42
S'seq7'
p71
sbag12
(g13
g14
NtRp72
(dp73
g17
I1
sg18
g19
((lp74
g21
ag22
ag23
ag24
ag17
ag25
atRp75
sg27
S'GGACCTAGCCTCGTGAAACCTTCTCAGACTCTGTCCCTCACCTGTTCTGTCACTGGCGACTCCATCACCAGTGGTTACTGGAACTGGATCCGGAAATTCCCAGGGAATAAACTTGAGTACATGGGGTACATAAGCTACAGTGGTAGCACTTACTACAATCCATCTCTCAAAAGTCGAATCTCCATCTCTCGAGACACATCCAAGAACCAGTACTACCTGCAGTTGAATTCTGTGACTACTGAGGACACAGCCACATATTACTGT'
p76
sg29
g15
sg30
F1
sg31
I1
sg32
Nsg33
F1
sg34
(lp77
sg42
S'seq2'
p78
sbag12
(g13
g14
NtRp79
(dp80
g17
I1
sg18
g19
((lp81
g21
ag22
ag23
ag24
ag17
ag25
atRp82
sg27
S'GGACCTAGCCTCGTGAAACCTTCTCAGACTCTGTCCCTCACCTGTTCTGTCACTGGCGACTCCATCACTAGTGGTTACTGGAACTGGATCCGGAAATTCCCAGGGAATAAACTTGAGTACATGGGGTACATAAGCTACAGTGGTAGCACTTACTACAATCCATCTCTCAAAAGTCGAATCTCCATCACTCGAGACACATCCAAGAACCAGTACTACCTGCAGTTGAATTCTGTGACTACTGAGGACACAGCCACATATTACTGT'
p83
sg29
g15
sg30
F1
sg31
I1
sg32
Nsg33
F1
sg34
(lp84
sg42
S'seq14'
p85
sbag12
(g13
g14
NtRp86
(dp87
g17
I2
sg18
g19
((lp88
g21
ag22
ag23
ag24
ag17
ag25
atRp89
sg27
S'GGACCTAGCCTCGTGAAACCTTCTCAGACTCTGTCCCTCACCTGTTCTGTCACTGGCGACTCCATCACCAGTGGTTACTGGAACTGGATCCGGAAATTCCCAGGGAATAATCTTGAGTACATGGGGTACATAAGCTACAGTGGTAGCACTTACTACAATCCATCTCTCAAAAGTCGAATCTCCATCACTCGAGACACATCCAAGAACCAGTACTACCTGCAGTTGAATTCTGTGACTACTGAGGACACAGCCACATATTACTGT'
p90
sg29
g15
sg30
F1
sg31
I1
sg32
Nsg33
F1
sg34
(lp91
g12
(g13
g14
NtRp92
(dp93
g17
I1
sg18
g19
((lp94
g21
ag22
ag23
ag24
ag17
ag25
atRp95
sg27
S'GGACCTAGCCTCGTGAAACCTTCTCAGACTCTGTCCCTCACCTGCTCTGTCACTGGCGACTCCATCACCAGTGGTTACTGGAACTGGATCCGGAAATTCCCAGGGAATAATCTTGAGTACATGGGGTACATAAGCTACAGTGGTAGCACTTACTACAATCCATCTCTCAAAAGTCGAATCTCCATCACTCGAGACACATCCAAGAACCAGTACTACCTGCAGTTGAATTCTGTGACTACTGAGGACACAGCCACATATTACTGT'
p96
sg29
g86
sg30
F1
sg31
I1
sg32
Nsg33
F1
sg34
(lp97
sg42
S'seq4'
p98
sbasg42
S'seq11'
p99
sbag12
(g13
g14
NtRp100
(dp101
g17
I2
sg18
g19
((lp102
g21
ag22
ag23
ag24
ag17
ag25
atRp103
sg27
S'GGACCTAGCCTCGTGAAACCTTCTCAGACTCTGTCCCTCACCTGTTCTGTCACTGGCGACTCCATCACCAGTGGTTACTGGACCTGGATCCGGAAATTCCCAGGGAATAAACTTGAGTACATGGGGTACATAAGCTACAGTGGTAGCACTTACTACAATCCATCTCTCAAAAGTCGAATCTCCATCACTCGAGACACATCCAAGAACCAGTACTACCTGCAGTTGAATTCTGTGACTACTGAGGACACAGCCACATATTACTGT'
p104
sg29
g15
sg30
F1
sg31
I2
sg32
Nsg33
F1
sg34
(lp105
sg42
S'seq3'
p106
sbag12
(g13
g14
NtRp107
(dp108
g17
I3
sg18
g19
((lp109
g21
ag22
ag23
ag24
ag17
ag25
atRp110
sg27
S'GGACCTAGCCTCGTGAAACCTTCTCAGACTCTGTCCCTCACCTGTTCTGTCACTGGCGACTCCATCACCAGTGGTTACTGGAACTGGATCCGGAAATTCCCAGGGAATAAACTTGAGTACATGGGGTACATAAGCTACAGTGGTAGCACTTACTACAATCCATCTCTCAAAAGTCGAATCTCCATCACTCGAGACACATCCAAGATCCAGTACTACCTGCAGTTGAATTCTGTGACTACTGAGGACACAGCCACATATTACTGT'
p111
sg29
g15
sg30
F1
sg31
I1
sg32
Nsg33
F1
sg34
(lp112
g12
(g13
g14
NtRp113
(dp114
g17
I1
sg18
g19
((lp115
g21
ag22
ag23
ag24
ag17
ag25
atRp116
sg27
S'GGACCTAGCCTCGTGAAACCTTCTCAGACTCTGTCCCTCACCTGTTCTGTCACTGGCGACTCCATCACCAGTGGTTACTGGAACTGGATCCGGAAATTCCCAGGGAATAAACTTGAGTACATGGGGTACATAAGCTACAGTGGTAGCACTTACTACAATCCATCTCTCAAAAGTCGAATCTCCATCATTCGAGACACATCCAAGATCCAGTACTACCTGCAGTTGAATTCTGTGACTACTGAGGACACAGCCACATATTACTGT'
p117
sg29
g107
sg30
F1
sg31
I1
sg32
Nsg33
F1
sg34
(lp118
sg42
S'seq13'
p119
sbag12
(g13
g14
NtRp120
(dp121
g17
I1
sg18
g19
((lp122
g21
ag22
ag23
ag24
ag17
ag25
atRp123
sg27
S'GGACCTAGCCTCGTGAAACCTTCTCAGACTCTGTCCCTCACCTGTTCTGTCACTGGTGACTCCATCACCAGTGGTTACTGGAACTGGATCCGGAAATTCCCAGGGAATAAACTTGAGTACATGGGGTACATAAGCTACAGTGGTAGCACTTACTACAATCCATCTCTCAAAAGTCGAATCTCCATCACTCGAGACACATCCAAGATCCAGTACTACCTGCAGTTGAATTCTGTGACTACTGAGGACACAGCCACATATTACTGT'
p124
sg29
g107
sg30
F1
sg31
I1
sg32
Nsg33
F1
sg34
(lp125
sg42
S'seq8'
p126
sbasg42
S'seq5'
p127
sbag12
(g13
g14
NtRp128
(dp129
g17
I3
sg18
g19
((lp130
g21
ag22
ag23
ag24
ag17
ag25
atRp131
sg27
S'GGACCTAGCCTCGTGAAACCTTCTCAGACTCTGTCCCTCACCTGTTCTGTCACTGGCGACTCCATCACCAGTGGTTACTGGAACTGGATCCGGAAATTCCCAGGGAATAAACTTGAGTACATGGGGTACATAAGCTGCAGTGGTAGCACTTACTACAATCCATCTCTCAAAAGTCGAATCTCCATCACTCGAGACACATCCAAGAACCAGTACTACCTGCAGTTGAATTCTGTGACTACTGAGGACACAGCCACATATTACTGT'
p132
sg29
g15
sg30
F1
sg31
I2
sg32
Nsg33
F1
sg34
(lp133
g12
(g13
g14
NtRp134
(dp135
g17
I1
sg18
g19
((lp136
g21
ag22
ag23
ag24
ag17
ag25
atRp137
sg27
S'GGACCTAGCCTCGTGAAACCTTCTCAGACTCTGTCCCTCACCTGTTCTGTCACTGGCGACTCCATCACCAGTGGTTACTGGAACTGGATCCGGAAATTCCCAGGGAATAAACTTGAGTACATGGGGTACACAAGCTGCAGTGGTAGCACTTACTACAATCCATCTCTCAAAAGTCGAATCTCCATCACTCGAGACACATCCAAGAACCAGTACTACCTGCAGTTGAATTCTGTGACTACTGAGGACACAGCCACATATTACTGT'
p138
sg29
g128
sg30
F1
sg31
I1
sg32
Nsg33
F1
sg34
(lp139
sg42
S'seq9'
p140
sbasg42
S'seq15'
p141
sbasg42
S'naive'
p142
sbsg4
Nsg7
Nsg6
I2
sbtp143
sb.