(i__main__
CollapsedTree
p1
(dp2
S'tree'
p3
ccopy_reg
_reconstructor
p4
(cete3.coretype.tree
TreeNode
p5
c__builtin__
object
p6
NtRp7
(dp8
S'terminated'
p9
I00
sS'partition'
p10
I50
sS'features'
p11
c__builtin__
set
p12
((lp13
S'terminated'
p14
aS'dist'
p15
aS'name'
p16
aS'sequence'
p17
aS'support'
p18
ag10
aS'frequency'
p19
aS'time'
p20
atRp21
sS'sequence'
p22
S'GGACCTAGCCTCGTGAAACCTTCTCAGACTCTGTCCCTCACCTGTTCTGTCACTGGCGACTCCATCACCAGTGGTTACTGGAACTGGATCCGGAAATTCCCAGGGAATAAACTTGAGTACATGGGGTACATAAGCTACAGTGGTAGCACTTACTACAATCCATCTCTCAAAAGTCGAATCTCCATCACTCGAGACACATCCAAGAACCAGTACTACCTGCAGTTGAATTCTGTGACTACTGAGGACACAGCCACATATTACTGT'
p23
sS'_up'
p24
NsS'_dist'
p25
F0
sS'frequency'
p26
I30
sS'_img_style'
p27
NsS'time'
p28
I0
sS'_support'
p29
F1
sS'_children'
p30
(lp31
g4
(g5
g6
NtRp32
(dp33
g9
I00
sg10
I1
sg11
g12
((lp34
g14
ag15
ag16
ag17
ag18
ag10
ag19
ag20
atRp35
sg22
S'GGACCTAGCCTCGTGAAACCTTCTCAGACTCTGTCCCTCACCTGTTCTGTCACTGGCGACTCCATCACCAGTGGTAACTGGAACTGGATCCGGAAATTCCCAGGGAATAAACTTGAGTACATGGGGTACATAAGCTACAGTGGTAGCACTTACTACAATCCATCTCTCAAAAGTCGAATCTCCATCACTCGAGACACATCCAAGAACCAGTACTACCTGCAGTTGAATTCTGTGACTACTGAGGACACAGCCACATATTACTGT'
p36
sg24
g7
sg25
F1
sg26
I1
sg27
Nsg28
I5
sg29
F1
sg30
(lp37
sS'name'
p38
S'simcell_81'
p39
sbag4
(g5
g6
NtRp40
(dp41
g9
I00
sg10
I1
sg11
g12
((lp42
g14
ag15
ag16
ag17
ag18
ag10
ag19
ag20
atRp43
sg22
S'GGACCTAGCCTCGTGAAACCTTCTCAGACTCTGTCCCTCACCTGTTCTGTCACTGGCGACTCCATCACCAGTGGTTAATGGAACTGGATCCGGAAATTCCCAGGGAATAAACTTGAGTACATGGGGTACATAAGCTACAGTGGTAGCACTTACTACAATCCATCTCTCAAAAGTCGAATCTCCATCACTCGAGACACATCCAAGAACCAGTACTACCTGCAGTTGAATTCTGTGACTACTGAGGACACAGCCACATATTACTGT'
p44
sg24
g7
sg25
F1
sg26
I1
sg27
Nsg28
I5
sg29
F1
sg30
(lp45
sg38
S'simcell_51'
p46
sbag4
(g5
g6
NtRp47
(dp48
g9
I00
sg10
I1
sg11
g12
((lp49
g14
ag15
ag16
ag17
ag18
ag10
ag19
ag20
atRp50
sg22
S'GGACCTAGCCTCGTGAAACCTTCTCAGACTCTGTCCCTCACCTGTTCTGTCACTGGCGACTCCATCACCAGTGGTTACTGGAACTGAATCCGGAAATTCCCAGGGAATAAACTTGAGTACATGGGGTACATAAGCTACAGTGGTAGCACTTACTACAATCCATCTCTCAAAAGTCGAATCTCCATCACTCGAGACACATCCAAGAACCAGTACTACCTGCAGTTGAATTCTGTGACTACTGAGGACACAGCCACATATTACTGT'
p51
sg24
g7
sg25
F1
sg26
I1
sg27
Nsg28
I5
sg29
F1
sg30
(lp52
sg38
S'simcell_84'
p53
sbag4
(g5
g6
NtRp54
(dp55
g9
I00
sg10
I1
sg11
g12
((lp56
g14
ag15
ag16
ag17
ag18
ag10
ag19
ag20
atRp57
sg22
S'GGACCTAGCCTCGTGAAACCTTCTCAGACTCTGTCCCTCACCTGTTCTGTCACTGGCGACTCCATCACCAGTGGTTACTGGAACTGGATCCGGAAATTCCCAGGGAATAAACTTGAGTACATGGGGTACATAAGCTACAGTGGTAGCACTTACTACAATCCATCTCTCAAAAGTCGAATCTCCATCACTCGAGACACATCCAAGAACCAGTACTCCCTGCAGTTGAATTCTGTGACTACTGAGGACACAGCCACATATTACTGT'
p58
sg24
g7
sg25
F1
sg26
I1
sg27
Nsg28
I5
sg29
F1
sg30
(lp59
sg38
S'simcell_50'
p60
sbag4
(g5
g6
NtRp61
(dp62
g9
I00
sg10
I1
sg11
g12
((lp63
g14
ag15
ag16
ag17
ag18
ag10
ag19
ag20
atRp64
sg22
S'GGACCTAGCCTCGTGAAACCTTCTCAGACTCTGTCCCTCACCTGTTCTGTCACTGGCGACTCCATCACCAGTGGTTACTGGAACTGGATCCGGAAATTCCCAGGGAATAAACTTGAGTACATGGGGTACATAAGCTACAGTGGTAGCACTTACTACAATCCATCTCTCAAAAGTCGAATCTCCATCACTCGAGACACATCCAAGAACCAGTAGTACCTGCAGTTGAATTCTGTGACTACTGAGGACACAGCCACATATTACTGT'
p65
sg24
g7
sg25
F1
sg26
I1
sg27
Nsg28
I5
sg29
F1
sg30
(lp66
sg38
S'simcell_79'
p67
sbag4
(g5
g6
NtRp68
(dp69
g9
I00
sg10
I1
sg11
g12
((lp70
g14
ag15
ag16
ag17
ag18
ag10
ag19
ag20
atRp71
sg22
S'GGACCTAGCCTCGTGAAACCTTCTCAGACTCTGTCCCTCACCTGTTCTGTCACTGGCGACTCCATCACCAGTGGTTACTGGAACTGGATCCGGAAATTCCCAGGGAATAAACTTGAGTACATGGGGTACATAAGCTACAGTGGTAGCACTTGCTACAATCCATCTCTCAAAAGTCGAATCTCCATCACTCGAGACACATCCAAGAACCAGTACTACCTGCAGTTGAATTCTGTGACTACTGAGGACACAGCCACATATTACTGT'
p72
sg24
g7
sg25
F1
sg26
I1
sg27
Nsg28
I5
sg29
F1
sg30
(lp73
sg38
S'simcell_74'
p74
sbag4
(g5
g6
NtRp75
(dp76
g9
I00
sg10
I1
sg11
g12
((lp77
g14
ag15
ag16
ag17
ag18
ag10
ag19
ag20
atRp78
sg22
S'GGACCTAGCCTCGTGAAACCTTCTCAGACTCTGTCCCTCACCTGTTCTGTCACTGGCGACTCCATCACCAGTGGTTACTGGAACTGGATCCGGAAATTCCCAGGGAATAAACTTGAGTACGTGGGGTACATAAGCTACAGTGGTAGCACTTACTACAATCCATCTCTCAAAAGTCGAATCTCCATCACTCGAGACACATCCAAGAACCAGTACTACCTGCAGTTGAATTCTGTGACTACTGAGGACACAGCCACATATTACTGT'
p79
sg24
g7
sg25
F1
sg26
I1
sg27
Nsg28
I5
sg29
F1
sg30
(lp80
sg38
S'simcell_55'
p81
sbag4
(g5
g6
NtRp82
(dp83
g9
I00
sg10
I1
sg11
g12
((lp84
g14
ag15
ag16
ag17
ag18
ag10
ag19
ag20
atRp85
sg22
S'GGACCTAGCCTCGTGAAACCTTCTCAGACTCTGTCCCTCACCTGTTCTGTCACTGGCGACTCCATCACCAGTGGTTACTGGAACTGGATCCGGTAATTCCCAGGGAATAAACTTGAGTACATGGGGTACATAAGCTACAGTGGTAGCACTTACTACAATCCATCTCTCAAAAGTCGAATCTCCATCACTCGAGACACATCCAAGAACCAGTACTACCTGCAGTTGACTTCTGTGACTACTGAGGACACAGCCACATATTACTGT'
p86
sg24
g7
sg25
F2
sg26
I1
sg27
Nsg28
I5
sg29
F1
sg30
(lp87
sg38
S'simcell_75'
p88
sbag4
(g5
g6
NtRp89
(dp90
g9
I00
sg10
I1
sg11
g12
((lp91
g14
ag15
ag16
ag17
ag18
ag10
ag19
ag20
atRp92
sg22
S'GGACCTAGCCTCGTGAAACCTTCTCAGACTCTGTCCCTCACCTGTTCTGTCACTGGCGACTCCATCACCAGTGGTTACTTGAACTGGATCCGGAAATTCCCAGGGAATAAACTTGAGTACATGGGGTACATAAGCTACAGTGGTAGCACTTACTACAATCCATCTCTCAAAAGTCGAATCTCCATCACTCGAGACACATCCAAGAACCAGTACTACCTGCAGTTGAATTCTGTGACTACTGAGGACACAGCCACATATTACTGT'
p93
sg24
g7
sg25
F1
sg26
I1
sg27
Nsg28
I5
sg29
F1
sg30
(lp94
sg38
S'simcell_72'
p95
sbag4
(g5
g6
NtRp96
(dp97
g9
I00
sg10
I2
sg11
g12
((lp98
g14
ag15
ag16
ag17
ag18
ag10
ag19
ag20
atRp99
sg22
S'GGACCTAGCCTCGTGAAACCTTCTCAGACTCTGTCCCTCACCTGTTCTGTCACTGGCGACTCCATCACCAGTGGTTACTGGAACTGGATCCGGAAATTCCCAGGGAATAAACTTGAGTACATGGGCTACATAAGCTACAGTGGTAGCACTTACTACAATCCATCTCTCAAAAGTCGAATCTCCATCACTCGAGACACATCCAAGAACCAGTACTACCTGCAGTTGAATTCTGTGACTACTGAGGACACAGCCACATATTACTGT'
p100
sg24
g7
sg25
F1
sg26
I2
sg27
Nsg28
I4
sg29
F1
sg30
(lp101
sg38
(S'simcell_48'
S'simcell_47'
tp102
sbag4
(g5
g6
NtRp103
(dp104
g9
I00
sg10
I3
sg11
g12
((lp105
g14
ag15
ag16
ag17
ag18
ag10
ag19
ag20
atRp106
sg22
S'GGACCTAGCCTCGTGAAACCTTCTCAGACTCTGTCCCTCACCTGTTCTGTCACTGGCGACTCCATCACCAGTGGTTACTGGAACTGGATCCGGAAATTCCCAGGGAATAAACTTGAGTACATGGGGTACAAAAGCTACAGTGGTAGCACTTACTACAATCCATCTCTCAAAAGTCGAATCTCCATCACTCGAGACACATCCAAGAACCAGTACTACCTGCAGTTGAATTCTGTGACTACTGAGGACACAGCCACATATTACTGT'
p107
sg24
g7
sg25
F1
sg26
I2
sg27
Nsg28
I4
sg29
F1
sg30
(lp108
g4
(g5
g6
NtRp109
(dp110
g9
I00
sg10
I1
sg11
g12
((lp111
g14
ag15
ag16
ag17
ag18
ag10
ag19
ag20
atRp112
sg22
S'GGACCTAGCCTCGTGAAACCTTCTCAGACTCTGTCCCTCACCTGTTCTGTCACTGGCGACTCCATCACCAGTGGTTACTGGAACTGGATCCGGAAATTCCCAGGGAATAAACTTGAGTACATGGGGTACAAAAGCTACAGTGGTAGCACTTACTACAATCCATCTCTCAAAAGTCGAATCTCCATCACTCGAGACACAGCCAAGAACCAGTACTACCTGCAGTTGAATTCTGTGACTACTGAGGACACAGCCACATATTACTGT'
p113
sg24
g103
sg25
F1
sg26
I1
sg27
Nsg28
I5
sg29
F1
sg30
(lp114
sg38
S'simcell_59'
p115
sbasg38
(S'simcell_58'
S'simcell_57'
tp116
sbag4
(g5
g6
NtRp117
(dp118
g9
I00
sg10
I3
sg11
g12
((lp119
g14
ag15
ag16
ag17
ag18
ag10
ag19
ag20
atRp120
sg22
S'GGACCTAGCCTCGTGAAACCTTCTCAGACTCTGTCCCTCACCTGTTCTGTCACTGGCGACTCCATCACCAGTGGTTACTGGAACTGGATCCGGAAATTCCCAGGGAATAAACTTGAGTACATGGGGTACATAAGCTACAGTGGTAGCACTTACTACAATCCATCTCTCAAAAGTCGAATCTCCATCACTCGAGACACATCCAAGAACCAGTTCTACCTGCAGTTGAATTCTGTGACTACTGAGGACACAGCCACATATTACTGT'
p121
sg24
g7
sg25
F1
sg26
I3
sg27
Nsg28
I4
sg29
F1
sg30
(lp122
sg38
(S'simcell_46'
S'simcell_44'
S'simcell_45'
tp123
sbag4
(g5
g6
NtRp124
(dp125
g9
I00
sg10
I3
sg11
g12
((lp126
g14
ag15
ag16
ag17
ag18
ag10
ag19
ag20
atRp127
sg22
S'GGACCTAGCCTCGTGAAACCTTCTCAGACTCTGTCCCTCACCTGTTCTGTCACTGGCGACTCCATCACCAGTGGTTACTGGAAGTGGATCCGGAAATTCCCAGGGAATAAACTTGAGTACATGGGGTACATAAGCTACAGTGGTAGCACTTACTACAATCCATCTCTCAAAAGTCGAATCTCCATCACTCGAGACACATCCAAGAACCAGTACTACCTGCAGTTGAATTCTGTGACTACTGAGGACACAGCCACATATTACTGT'
p128
sg24
g7
sg25
F1
sg26
I2
sg27
Nsg28
I4
sg29
F1
sg30
(lp129
g4
(g5
g6
NtRp130
(dp131
g9
I00
sg10
I1
sg11
g12
((lp132
g14
ag15
ag16
ag17
ag18
ag10
ag19
ag20
atRp133
sg22
S'GGACCTAGCCTCGTGAAACCTTCTCAGACTCTGTCCCTCACCTGTTCTGTCACTGGCGACTCCATCACCAGTGGTTACTGGAAGTGGATCCGGAAATTCCCAGGGAATAAACTTGAGTACATGGGGTACATAAGCTACAGTGGTAGCACTTACTACAATCCATCTCTCAAAAGTCGAATCTCCATCACTCGAGACACATCCAAGAACAAGTACTACCTGCAGTTGAATTCTGTGACTACTGAGGACACAGCCACATATTACTGT'
p134
sg24
g124
sg25
F1
sg26
I1
sg27
Nsg28
I5
sg29
F1
sg30
(lp135
sg38
S'simcell_41'
p136
sbasg38
(S'simcell_40'
S'simcell_39'
tp137
sbasg38
(S'simcell_64'
S'simcell_1'
S'simcell_65'
S'simcell_53'
S'simcell_52'
S'simcell_78'
S'simcell_73'
S'simcell_71'
S'simcell_70'
S'simcell_77'
S'simcell_76'
S'simcell_54'
S'simcell_42'
S'simcell_43'
S'simcell_66'
S'simcell_67'
S'simcell_60'
S'simcell_61'
S'simcell_62'
S'simcell_63'
S'simcell_49'
S'simcell_68'
S'simcell_69'
S'simcell_86'
S'simcell_87'
S'simcell_56'
S'simcell_85'
S'simcell_82'
S'simcell_83'
S'simcell_80'
S'simcell_88'
tp138
sbsS'frame'
p139
NsS'params'
p140
NsS'_nparams'
p141
I2
sb.